(dp0
S'METTS MARK'
p1
(dp2
S'to_messages'
p3
F807.0
sS'deferral_payments'
p4
F0.0
sS'expenses'
p5
F94299.0
sS'poi'
p6
F0.0
sS'long_term_incentive'
p7
F0.0
sS'email_address'
p8
S'mark.metts@enron.com'
p9
sS'from_poi_to_this_person'
p10
F38.0
sS'deferred_income'
p11
F0.0
sS'restricted_stock_deferred'
p12
F0.0
sS'from_messages'
p13
F29.0
sS'shared_receipt_with_poi'
p14
F702.0
sS'loan_advances'
p15
F0.0
sS'ratio_salary_total_payments'
p16
F0.34448926237513267
sS'other'
p17
F1740.0
sS'director_fees'
p18
F0.0
sS'ratio_stock_total_payments'
p19
F0.5509955953276758
sS'bonus'
p20
F600000.0
sS'total_stock_value'
p21
F585062.0
sS'from_this_person_to_poi'
p22
F1.0
sS'restricted_stock'
p23
F585062.0
sS'salary'
p24
F365788.0
sS'total_payments'
p25
F1061827.0
sS'total_income'
p26
F1646889.0
sS'exercised_stock_options'
p27
F0.0
ssS'BAXTER JOHN C'
p28
(dp29
g3
F0.0
sg4
F1295738.0
sg5
F11200.0
sg6
F0.0
sg7
F1586055.0
sg8
S'NaN'
p30
sg10
F0.0
sg11
F-1386055.0
sg12
F0.0
sg13
F0.0
sg14
F0.0
sg15
F0.0
sg16
F0.047406059588491506
sg17
F2660303.0
sg18
F0.0
sg19
F1.8854475135787794
sg20
F1200000.0
sg21
F10623258.0
sg22
F0.0
sg23
F3942714.0
sg24
F267102.0
sg25
F5634343.0
sg26
F16257601.0
sg27
F6680544.0
ssS'ELLIOTT STEVEN'
p31
(dp32
g3
F0.0
sg4
F0.0
sg5
F78552.0
sg6
F0.0
sg7
F0.0
sg8
S'steven.elliott@enron.com'
p33
sg10
F0.0
sg11
F-400729.0
sg12
F0.0
sg13
F0.0
sg14
F0.0
sg15
F0.0
sg16
F0.8073727712835046
sg17
F12961.0
sg18
F0.0
sg19
F31.544385405596884
sg20
F350000.0
sg21
F6678735.0
sg22
F0.0
sg23
F1788391.0
sg24
F170941.0
sg25
F211725.0
sg26
F6890460.0
sg27
F4890344.0
ssS'CORDES WILLIAM R'
p34
(dp35
g3
F764.0
sg4
F0.0
sg5
F0.0
sg6
F0.0
sg7
F0.0
sg8
S'bill.cordes@enron.com'
p36
sg10
F10.0
sg11
F0.0
sg12
F0.0
sg13
F12.0
sg14
F58.0
sg15
F0.0
sg16
F0.0
sg17
F0.0
sg18
F0.0
sg19
F0.0
sg20
F0.0
sg21
F1038185.0
sg22
F0.0
sg23
F386335.0
sg24
F0.0
sg25
F0.0
sg26
F1038185.0
sg27
F651850.0
ssS'HANNON KEVIN P'
p37
(dp38
g3
F1045.0
sg4
F0.0
sg5
F34039.0
sg6
F1.0
sg7
F1617011.0
sg8
S'kevin.hannon@enron.com'
p39
sg10
F32.0
sg11
F-3117011.0
sg12
F0.0
sg13
F32.0
sg14
F1035.0
sg15
F0.0
sg16
F0.8427716310680957
sg17
F11350.0
sg18
F0.0
sg19
F22.13877207446256
sg20
F1500000.0
sg21
F6391065.0
sg22
F21.0
sg23
F853064.0
sg24
F243293.0
sg25
F288682.0
sg26
F6679747.0
sg27
F5538001.0
ssS'MORDAUNT KRISTINA M'
p40
(dp41
g3
F0.0
sg4
F0.0
sg5
F35018.0
sg6
F0.0
sg7
F0.0
sg8
S'kristina.mordaunt@enron.com'
p42
sg10
F0.0
sg11
F0.0
sg12
F0.0
sg13
F0.0
sg14
F0.0
sg15
F0.0
sg16
F0.42495409866321304
sg17
F1411.0
sg18
F0.0
sg19
F0.33174654188715746
sg20
F325000.0
sg21
F208510.0
sg22
F0.0
sg23
F208510.0
sg24
F267093.0
sg25
F628522.0
sg26
F837032.0
sg27
F0.0
ssS'MEYER ROCKFORD G'
p43
(dp44
g3
F232.0
sg4
F1848227.0
sg5
F0.0
sg6
F0.0
sg7
F0.0
sg8
S'rockford.meyer@enron.com'
p45
sg10
F0.0
sg11
F0.0
sg12
F0.0
sg13
F28.0
sg14
F22.0
sg15
F0.0
sg16
F0.0
sg17
F0.0
sg18
F0.0
sg19
F0.5171837658469441
sg20
F0.0
sg21
F955873.0
sg22
F0.0
sg23
F462384.0
sg24
F0.0
sg25
F1848227.0
sg26
F2804100.0
sg27
F493489.0
ssS'MCMAHON JEFFREY'
p46
(dp47
g3
F2355.0
sg4
F0.0
sg5
F137108.0
sg6
F0.0
sg7
F694862.0
sg8
S'jeffrey.mcmahon@enron.com'
p48
sg10
F58.0
sg11
F0.0
sg12
F0.0
sg13
F48.0
sg14
F2228.0
sg15
F0.0
sg16
F0.09035821756873738
sg17
F297353.0
sg18
F0.0
sg19
F0.4055970443227195
sg20
F2600000.0
sg21
F1662855.0
sg22
F26.0
sg23
F558801.0
sg24
F370448.0
sg25
F4099771.0
sg26
F5762626.0
sg27
F1104054.0
ssS'HORTON STANLEY C'
p49
(dp50
g3
F2350.0
sg4
F3131860.0
sg5
F0.0
sg6
F0.0
sg7
F0.0
sg8
S'stanley.horton@enron.com'
p51
sg10
F44.0
sg11
F0.0
sg12
F0.0
sg13
F1073.0
sg14
F1074.0
sg15
F0.0
sg16
F0.0
sg17
F0.0
sg18
F0.0
sg19
F2.3170409916152064
sg20
F0.0
sg21
F7256648.0
sg22
F15.0
sg23
F2046079.0
sg24
F0.0
sg25
F3131860.0
sg26
F10388508.0
sg27
F5210569.0
ssS'PIPER GREGORY F'
p52
(dp53
g3
F1238.0
sg4
F1130036.0
sg5
F43057.0
sg6
F0.0
sg7
F0.0
sg8
S'greg.piper@enron.com'
p54
sg10
F61.0
sg11
F-33333.0
sg12
F-409554.0
sg13
F222.0
sg14
F742.0
sg15
F0.0
sg16
F0.11342524785210191
sg17
F778.0
sg18
F0.0
sg19
F0.5066041139967162
sg20
F400000.0
sg21
F880290.0
sg22
F48.0
sg23
F409554.0
sg24
F197091.0
sg25
F1737629.0
sg26
F2617919.0
sg27
F880290.0
ssS'HUMPHREY GENE E'
p55
(dp56
g3
F128.0
sg4
F2964506.0
sg5
F4994.0
sg6
F0.0
sg7
F0.0
sg8
S'gene.humphrey@enron.com'
p57
sg10
F10.0
sg11
F0.0
sg12
F0.0
sg13
F17.0
sg14
F119.0
sg15
F0.0
sg16
F0.04216598542556925
sg17
F0.0
sg18
F0.0
sg19
F0.7363235688776036
sg20
F0.0
sg21
F2282768.0
sg22
F17.0
sg23
F0.0
sg24
F130724.0
sg25
F3100224.0
sg26
F5382992.0
sg27
F2282768.0
ssS'UMANOFF ADAM S'
p58
(dp59
g3
F111.0
sg4
F0.0
sg5
F53122.0
sg6
F0.0
sg7
F0.0
sg8
S'adam.umanoff@enron.com'
p60
sg10
F12.0
sg11
F0.0
sg12
F0.0
sg13
F18.0
sg14
F41.0
sg15
F0.0
sg16
F0.2552843485976075
sg17
F0.0
sg18
F0.0
sg19
F0.0
sg20
F788750.0
sg21
F0.0
sg22
F0.0
sg23
F0.0
sg24
F288589.0
sg25
F1130461.0
sg26
F1130461.0
sg27
F0.0
ssS'BLACHMAN JEREMY M'
p61
(dp62
g3
F2475.0
sg4
F0.0
sg5
F84208.0
sg6
F0.0
sg7
F831809.0
sg8
S'jeremy.blachman@enron.com'
p63
sg10
F25.0
sg11
F0.0
sg12
F0.0
sg13
F14.0
sg14
F2326.0
sg15
F0.0
sg16
F0.12335799209364538
sg17
F272.0
sg18
F0.0
sg19
F0.4736636002451814
sg20
F850000.0
sg21
F954354.0
sg22
F2.0
sg23
F189041.0
sg24
F248546.0
sg25
F2014835.0
sg26
F2969189.0
sg27
F765313.0
ssS'SUNDE MARTIN'
p64
(dp65
g3
F2647.0
sg4
F0.0
sg5
F0.0
sg6
F0.0
sg7
F476451.0
sg8
S'marty.sunde@enron.com'
p66
sg10
F37.0
sg11
F0.0
sg12
F0.0
sg13
F38.0
sg14
F2565.0
sg15
F0.0
sg16
F0.16665124115001434
sg17
F111122.0
sg18
F0.0
sg19
F0.45235813001315806
sg20
F700000.0
sg21
F698920.0
sg22
F13.0
sg23
F698920.0
sg24
F257486.0
sg25
F1545059.0
sg26
F2243979.0
sg27
F0.0
ssS'GIBBS DANA R'
p67
(dp68
g3
F169.0
sg4
F504610.0
sg5
F0.0
sg6
F0.0
sg7
F461912.0
sg8
S'dana.gibbs@enron.com'
p69
sg10
F0.0
sg11
F0.0
sg12
F0.0
sg13
F12.0
sg14
F23.0
sg15
F0.0
sg16
F0.0
sg17
F0.0
sg18
F0.0
sg19
F2.295110716569307
sg20
F0.0
sg21
F2218275.0
sg22
F0.0
sg23
F0.0
sg24
F0.0
sg25
F966522.0
sg26
F3184797.0
sg27
F2218275.0
ssS'LOWRY CHARLES P'
p70
(dp71
g3
F0.0
sg4
F0.0
sg5
F0.0
sg6
F0.0
sg7
F0.0
sg8
g30
sg10
F0.0
sg11
F0.0
sg12
F-153686.0
sg13
F0.0
sg14
F0.0
sg15
F0.0
sg16
F0.0
sg17
F0.0
sg18
F0.0
sg19
F0.0
sg20
F0.0
sg21
F372205.0
sg22
F0.0
sg23
F153686.0
sg24
F0.0
sg25
F0.0
sg26
F372205.0
sg27
F372205.0
ssS'COLWELL WESLEY'
p72
(dp73
g3
F1758.0
sg4
F27610.0
sg5
F16514.0
sg6
F1.0
sg7
F0.0
sg8
S'wes.colwell@enron.com'
p74
sg10
F240.0
sg11
F-144062.0
sg12
F0.0
sg13
F40.0
sg14
F1132.0
sg15
F0.0
sg16
F0.19360765031428986
sg17
F101740.0
sg18
F0.0
sg19
F0.4685106257347297
sg20
F1200000.0
sg21
F698242.0
sg22
F11.0
sg23
F698242.0
sg24
F288542.0
sg25
F1490344.0
sg26
F2188586.0
sg27
F0.0
ssS'MULLER MARK S'
p75
(dp76
g3
F136.0
sg4
F842924.0
sg5
F0.0
sg6
F0.0
sg7
F1725545.0
sg8
S's..muller@enron.com'
p77
sg10
F12.0
sg11
F-719000.0
sg12
F0.0
sg13
F16.0
sg14
F114.0
sg15
F0.0
sg16
F0.07859103642331366
sg17
F947.0
sg18
F0.0
sg19
F0.44247877154465703
sg20
F1100000.0
sg21
F1416848.0
sg22
F0.0
sg23
F360528.0
sg24
F251654.0
sg25
F3202070.0
sg26
F4618918.0
sg27
F1056320.0
ssS'JACKSON CHARLENE R'
p78
(dp79
g3
F258.0
sg4
F0.0
sg5
F10181.0
sg6
F0.0
sg7
F0.0
sg8
S'charlene.jackson@enron.com'
p80
sg10
F25.0
sg11
F0.0
sg12
F0.0
sg13
F56.0
sg14
F117.0
sg15
F0.0
sg16
F0.5235334032447104
sg17
F2435.0
sg18
F0.0
sg19
F1.3167076095751977
sg20
F250000.0
sg21
F725735.0
sg22
F19.0
sg23
F540672.0
sg24
F288558.0
sg25
F551174.0
sg26
F1276909.0
sg27
F185063.0
ssS'WESTFAHL RICHARD K'
p81
(dp82
g3
F0.0
sg4
F0.0
sg5
F51870.0
sg6
F0.0
sg7
F256191.0
sg8
S'dick.westfahl@enron.com'
p83
sg10
F0.0
sg11
F-10800.0
sg12
F0.0
sg13
F0.0
sg14
F0.0
sg15
F0.0
sg16
F0.08363872542266133
sg17
F401130.0
sg18
F0.0
sg19
F0.5050679997638213
sg20
F0.0
sg21
F384930.0
sg22
F0.0
sg23
F384930.0
sg24
F63744.0
sg25
F762135.0
sg26
F1147065.0
sg27
F0.0
ssS'WALTERS GARETH W'
p84
(dp85
g3
F0.0
sg4
F53625.0
sg5
F33785.0
sg6
F0.0
sg7
F0.0
sg8
g30
sg10
F0.0
sg11
F0.0
sg12
F0.0
sg13
F0.0
sg14
F0.0
sg15
F0.0
sg16
F0.0
sg17
F0.0
sg18
F0.0
sg19
F11.787312664454868
sg20
F0.0
sg21
F1030329.0
sg22
F0.0
sg23
F0.0
sg24
F0.0
sg25
F87410.0
sg26
F1117739.0
sg27
F1030329.0
ssS'WALLS JR ROBERT H'
p86
(dp87
g3
F671.0
sg4
F0.0
sg5
F50936.0
sg6
F0.0
sg7
F540751.0
sg8
S'rob.walls@enron.com'
p88
sg10
F17.0
sg11
F0.0
sg12
F0.0
sg13
F146.0
sg14
F215.0
sg15
F0.0
sg16
F0.1985184402761872
sg17
F2.0
sg18
F0.0
sg19
F3.279443289340553
sg20
F850000.0
sg21
F5898997.0
sg22
F0.0
sg23
F1552453.0
sg24
F357091.0
sg25
F1798780.0
sg26
F7697777.0
sg27
F4346544.0
ssS'KITCHEN LOUISE'
p89
(dp90
g3
F8305.0
sg4
F0.0
sg5
F5774.0
sg6
F0.0
sg7
F0.0
sg8
S'louise.kitchen@enron.com'
p91
sg10
F251.0
sg11
F0.0
sg12
F0.0
sg13
F1728.0
sg14
F3669.0
sg15
F0.0
sg16
F0.07819964674439903
sg17
F93925.0
sg18
F0.0
sg19
F0.15762626755870765
sg20
F3100000.0
sg21
F547143.0
sg22
F194.0
sg23
F466101.0
sg24
F271442.0
sg25
F3471141.0
sg26
F4018284.0
sg27
F81042.0
ssS'CHAN RONNIE'
p92
(dp93
g3
F0.0
sg4
F0.0
sg5
F0.0
sg6
F0.0
sg7
F0.0
sg8
g30
sg10
F0.0
sg11
F-98784.0
sg12
F-32460.0
sg13
F0.0
sg14
F0.0
sg15
F0.0
sg16
F0.0
sg17
F0.0
sg18
F98784.0
sg19
F0.0
sg20
F0.0
sg21
F0.0
sg22
F0.0
sg23
F32460.0
sg24
F0.0
sg25
F0.0
sg26
F0.0
sg27
F0.0
ssS'BELFER ROBERT'
p94
(dp95
g3
F0.0
sg4
F-102500.0
sg5
F0.0
sg6
F0.0
sg7
F0.0
sg8
g30
sg10
F0.0
sg11
F0.0
sg12
F44093.0
sg13
F0.0
sg14
F0.0
sg15
F0.0
sg16
F0.0
sg17
F0.0
sg18
F3285.0
sg19
F-0.4301756097560976
sg20
F0.0
sg21
F-44093.0
sg22
F0.0
sg23
F0.0
sg24
F0.0
sg25
F102500.0
sg26
F58407.0
sg27
F3285.0
ssS'SHANKMAN JEFFREY A'
p96
(dp97
g3
F3221.0
sg4
F0.0
sg5
F178979.0
sg6
F0.0
sg7
F554422.0
sg8
S'jeffrey.shankman@enron.com'
p98
sg10
F94.0
sg11
F0.0
sg12
F0.0
sg13
F2681.0
sg14
F1730.0
sg15
F0.0
sg16
F0.10007891527369252
sg17
F1191.0
sg18
F0.0
sg19
F0.6818816060278369
sg20
F2000000.0
sg21
F2072035.0
sg22
F83.0
sg23
F630137.0
sg24
F304110.0
sg25
F3038702.0
sg26
F5110737.0
sg27
F1441898.0
ssS'WODRASKA JOHN'
p99
(dp100
g3
F0.0
sg4
F0.0
sg5
F0.0
sg6
F0.0
sg7
F0.0
sg8
S'john.wodraska@enron.com'
p101
sg10
F0.0
sg11
F0.0
sg12
F0.0
sg13
F0.0
sg14
F0.0
sg15
F0.0
sg16
F0.0
sg17
F189583.0
sg18
F0.0
sg19
F0.0
sg20
F0.0
sg21
F0.0
sg22
F0.0
sg23
F0.0
sg24
F0.0
sg25
F189583.0
sg26
F189583.0
sg27
F0.0
ssS'BERGSIEKER RICHARD P'
p102
(dp103
g3
F383.0
sg4
F0.0
sg5
F59175.0
sg6
F0.0
sg7
F180250.0
sg8
S'rick.bergsieker@enron.com'
p104
sg10
F4.0
sg11
F-485813.0
sg12
F0.0
sg13
F59.0
sg14
F233.0
sg15
F0.0
sg16
F0.3036632463440252
sg17
F427316.0
sg18
F0.0
sg19
F1.0652807627050174
sg20
F250000.0
sg21
F659249.0
sg22
F0.0
sg23
F659249.0
sg24
F187922.0
sg25
F618850.0
sg26
F1278099.0
sg27
F0.0
ssS'URQUHART JOHN A'
p105
(dp106
g3
F0.0
sg4
F0.0
sg5
F228656.0
sg6
F0.0
sg7
F0.0
sg8
g30
sg10
F0.0
sg11
F-36666.0
sg12
F0.0
sg13
F0.0
sg14
F0.0
sg15
F0.0
sg16
F0.0
sg17
F0.0
sg18
F36666.0
sg19
F0.0
sg20
F0.0
sg21
F0.0
sg22
F0.0
sg23
F0.0
sg24
F0.0
sg25
F228656.0
sg26
F228656.0
sg27
F0.0
ssS'BIBI PHILIPPE A'
p107
(dp108
g3
F1607.0
sg4
F0.0
sg5
F38559.0
sg6
F0.0
sg7
F369721.0
sg8
S'philippe.bibi@enron.com'
p109
sg10
F23.0
sg11
F0.0
sg12
F0.0
sg13
F40.0
sg14
F1336.0
sg15
F0.0
sg16
F0.10432981554439774
sg17
F425688.0
sg18
F0.0
sg19
F0.9004797340096397
sg20
F1000000.0
sg21
F1843816.0
sg22
F8.0
sg23
F378082.0
sg24
F213625.0
sg25
F2047593.0
sg26
F3891409.0
sg27
F1465734.0
ssS'PIRO JIM'
p110
(dp111
g3
F58.0
sg4
F0.0
sg5
F0.0
sg6
F0.0
sg7
F0.0
sg8
S'jim.piro@enron.com'
p112
sg10
F0.0
sg11
F0.0
sg12
F0.0
sg13
F16.0
sg14
F3.0
sg15
F0.0
sg16
F0.0
sg17
F0.0
sg18
F0.0
sg19
F0.0
sg20
F0.0
sg21
F47304.0
sg22
F1.0
sg23
F47304.0
sg24
F0.0
sg25
F0.0
sg26
F47304.0
sg27
F0.0
ssS'RIEKER PAULA H'
p113
(dp114
g3
F1328.0
sg4
F214678.0
sg5
F33271.0
sg6
F1.0
sg7
F0.0
sg8
S'paula.rieker@enron.com'
p115
sg10
F35.0
sg11
F-100000.0
sg12
F0.0
sg13
F82.0
sg14
F1258.0
sg15
F0.0
sg16
F0.22673187153125285
sg17
F1950.0
sg18
F0.0
sg19
F1.7458711673187153
sg20
F700000.0
sg21
F1918887.0
sg22
F48.0
sg23
F283649.0
sg24
F249201.0
sg25
F1099100.0
sg26
F3017987.0
sg27
F1635238.0
ssS'WHALEY DAVID A'
p116
(dp117
g3
F0.0
sg4
F0.0
sg5
F0.0
sg6
F0.0
sg7
F0.0
sg8
g30
sg10
F0.0
sg11
F0.0
sg12
F0.0
sg13
F0.0
sg14
F0.0
sg15
F0.0
sg16
F0.0
sg17
F0.0
sg18
F0.0
sg19
F0.0
sg20
F0.0
sg21
F98718.0
sg22
F0.0
sg23
F0.0
sg24
F0.0
sg25
F0.0
sg26
F98718.0
sg27
F98718.0
ssS'BECK SALLY W'
p118
(dp119
g3
F7315.0
sg4
F0.0
sg5
F37172.0
sg6
F0.0
sg7
F0.0
sg8
S'sally.beck@enron.com'
p120
sg10
F144.0
sg11
F0.0
sg12
F0.0
sg13
F4343.0
sg14
F2639.0
sg15
F0.0
sg16
F0.23871389830228631
sg17
F566.0
sg18
F0.0
sg19
F0.13004969723486898
sg20
F700000.0
sg21
F126027.0
sg22
F386.0
sg23
F126027.0
sg24
F231330.0
sg25
F969068.0
sg26
F1095095.0
sg27
F0.0
ssS'HAUG DAVID L'
p121
(dp122
g3
F573.0
sg4
F0.0
sg5
F475.0
sg6
F0.0
sg7
F0.0
sg8
S'david.haug@enron.com'
p123
sg10
F4.0
sg11
F0.0
sg12
F0.0
sg13
F19.0
sg14
F471.0
sg15
F0.0
sg16
F0.0
sg17
F0.0
sg18
F0.0
sg19
F4667.997894736842
sg20
F0.0
sg21
F2217299.0
sg22
F7.0
sg23
F2217299.0
sg24
F0.0
sg25
F475.0
sg26
F2217774.0
sg27
F0.0
ssS'ECHOLS JOHN B'
p124
(dp125
g3
F0.0
sg4
F0.0
sg5
F21530.0
sg6
F0.0
sg7
F2234774.0
sg8
S'john.echols@enron.com'
p126
sg10
F0.0
sg11
F0.0
sg12
F0.0
sg13
F0.0
sg14
F0.0
sg15
F0.0
sg16
F0.06769058998842635
sg17
F53775.0
sg18
F0.0
sg19
F0.3747472443881197
sg20
F200000.0
sg21
F1008941.0
sg22
F0.0
sg23
F407503.0
sg24
F182245.0
sg25
F2692324.0
sg26
F3701265.0
sg27
F601438.0
ssS'MENDELSOHN JOHN'
p127
(dp128
g3
F0.0
sg4
F0.0
sg5
F148.0
sg6
F0.0
sg7
F0.0
sg8
g30
sg10
F0.0
sg11
F-103750.0
sg12
F0.0
sg13
F0.0
sg14
F0.0
sg15
F0.0
sg16
F0.0
sg17
F0.0
sg18
F103750.0
sg19
F0.0
sg20
F0.0
sg21
F0.0
sg22
F0.0
sg23
F0.0
sg24
F0.0
sg25
F148.0
sg26
F148.0
sg27
F0.0
ssS'HICKERSON GARY J'
p129
(dp130
g3
F1320.0
sg4
F0.0
sg5
F98849.0
sg6
F0.0
sg7
F69223.0
sg8
S'gary.hickerson@enron.com'
p131
sg10
F40.0
sg11
F0.0
sg12
F0.0
sg13
F27.0
sg14
F900.0
sg15
F0.0
sg16
F0.10173331104488624
sg17
F1936.0
sg18
F0.0
sg19
F0.21188243228443132
sg20
F1700000.0
sg21
F441096.0
sg22
F1.0
sg23
F441096.0
sg24
F211788.0
sg25
F2081796.0
sg26
F2522892.0
sg27
F0.0
ssS'CLINE KENNETH W'
p132
(dp133
g3
F0.0
sg4
F0.0
sg5
F0.0
sg6
F0.0
sg7
F0.0
sg8
g30
sg10
F0.0
sg11
F0.0
sg12
F-472568.0
sg13
F0.0
sg14
F0.0
sg15
F0.0
sg16
F0.0
sg17
F0.0
sg18
F0.0
sg19
F0.0
sg20
F0.0
sg21
F189518.0
sg22
F0.0
sg23
F662086.0
sg24
F0.0
sg25
F0.0
sg26
F189518.0
sg27
F0.0
ssS'LEWIS RICHARD'
p134
(dp135
g3
F952.0
sg4
F0.0
sg5
F0.0
sg6
F0.0
sg7
F0.0
sg8
S'richard.lewis@enron.com'
p136
sg10
F10.0
sg11
F0.0
sg12
F0.0
sg13
F26.0
sg14
F739.0
sg15
F0.0
sg16
F0.0
sg17
F0.0
sg18
F0.0
sg19
F0.0
sg20
F0.0
sg21
F850477.0
sg22
F0.0
sg23
F0.0
sg24
F0.0
sg25
F0.0
sg26
F850477.0
sg27
F850477.0
ssS'HAYES ROBERT E'
p137
(dp138
g3
F504.0
sg4
F7961.0
sg5
F0.0
sg6
F0.0
sg7
F0.0
sg8
S'robert.hayes@enron.com'
p139
sg10
F16.0
sg11
F0.0
sg12
F0.0
sg13
F12.0
sg14
F50.0
sg15
F0.0
sg16
F0.0
sg17
F0.0
sg18
F0.0
sg19
F19.019972365280744
sg20
F0.0
sg21
F151418.0
sg22
F0.0
sg23
F151418.0
sg24
F0.0
sg25
F7961.0
sg26
F159379.0
sg27
F0.0
ssS'KOPPER MICHAEL J'
p140
(dp141
g3
F0.0
sg4
F0.0
sg5
F118134.0
sg6
F1.0
sg7
F602671.0
sg8
S'michael.kopper@enron.com'
p142
sg10
F0.0
sg11
F0.0
sg12
F0.0
sg13
F0.0
sg14
F0.0
sg15
F0.0
sg16
F0.08456004873686766
sg17
F907502.0
sg18
F0.0
sg19
F0.3713441694450602
sg20
F800000.0
sg21
F985032.0
sg22
F0.0
sg23
F985032.0
sg24
F224305.0
sg25
F2652612.0
sg26
F3637644.0
sg27
F0.0
ssS'LEFF DANIEL P'
p143
(dp144
g3
F2822.0
sg4
F0.0
sg5
F0.0
sg6
F0.0
sg7
F1387399.0
sg8
S'dan.leff@enron.com'
p145
sg10
F67.0
sg11
F0.0
sg12
F0.0
sg13
F63.0
sg14
F2672.0
sg15
F0.0
sg16
F0.10274871369867744
sg17
F3083.0
sg18
F0.0
sg19
F0.13532175174196803
sg20
F1000000.0
sg21
F360528.0
sg22
F14.0
sg23
F360528.0
sg24
F273746.0
sg25
F2664228.0
sg26
F3024756.0
sg27
F0.0
ssS'LAVORATO JOHN J'
p146
(dp147
g3
F7259.0
sg4
F0.0
sg5
F49537.0
sg6
F0.0
sg7
F2035380.0
sg8
S'john.lavorato@enron.com'
p148
sg10
F528.0
sg11
F0.0
sg12
F0.0
sg13
F2585.0
sg14
F3962.0
sg15
F0.0
sg16
F0.03254324841831629
sg17
F1552.0
sg18
F0.0
sg19
F0.4956133161361808
sg20
F8000000.0
sg21
F5167144.0
sg22
F411.0
sg23
F1008149.0
sg24
F339288.0
sg25
F10425757.0
sg26
F15592901.0
sg27
F4158995.0
ssS'BERBERIAN DAVID'
p149
(dp150
g3
F0.0
sg4
F0.0
sg5
F11892.0
sg6
F0.0
sg7
F0.0
sg8
S'david.berberian@enron.com'
p151
sg10
F0.0
sg11
F0.0
sg12
F0.0
sg13
F0.0
sg14
F0.0
sg15
F0.0
sg16
F0.9479503138212663
sg17
F0.0
sg18
F0.0
sg19
F10.914222187207297
sg20
F0.0
sg21
F2493616.0
sg22
F0.0
sg23
F869220.0
sg24
F216582.0
sg25
F228474.0
sg26
F2722090.0
sg27
F1624396.0
ssS'DETMERING TIMOTHY J'
p152
(dp153
g3
F0.0
sg4
F875307.0
sg5
F52255.0
sg6
F0.0
sg7
F415657.0
sg8
S'timothy.detmering@enron.com'
p154
sg10
F0.0
sg11
F-775241.0
sg12
F-315068.0
sg13
F0.0
sg14
F0.0
sg15
F0.0
sg16
F0.17474927007935526
sg17
F1105.0
sg18
F0.0
sg19
F1.6834580929666116
sg20
F425000.0
sg21
F2027865.0
sg22
F0.0
sg23
F315068.0
sg24
F210500.0
sg25
F1204583.0
sg26
F3232448.0
sg27
F2027865.0
ssS'WAKEHAM JOHN'
p155
(dp156
g3
F0.0
sg4
F0.0
sg5
F103773.0
sg6
F0.0
sg7
F0.0
sg8
g30
sg10
F0.0
sg11
F0.0
sg12
F0.0
sg13
F0.0
sg14
F0.0
sg15
F0.0
sg16
F0.0
sg17
F0.0
sg18
F109298.0
sg19
F0.0
sg20
F0.0
sg21
F0.0
sg22
F0.0
sg23
F0.0
sg24
F0.0
sg25
F213071.0
sg26
F213071.0
sg27
F0.0
ssS'POWERS WILLIAM'
p157
(dp158
g3
F653.0
sg4
F0.0
sg5
F0.0
sg6
F0.0
sg7
F0.0
sg8
S'ken.powers@enron.com'
p159
sg10
F0.0
sg11
F-17500.0
sg12
F0.0
sg13
F26.0
sg14
F12.0
sg15
F0.0
sg16
F0.0
sg17
F0.0
sg18
F17500.0
sg19
F0.0
sg20
F0.0
sg21
F0.0
sg22
F0.0
sg23
F0.0
sg24
F0.0
sg25
F0.0
sg26
F0.0
sg27
F0.0
ssS'GOLD JOSEPH'
p160
(dp161
g3
F0.0
sg4
F0.0
sg5
F0.0
sg6
F0.0
sg7
F304805.0
sg8
S'joe.gold@enron.com'
p162
sg10
F0.0
sg11
F0.0
sg12
F0.0
sg13
F0.0
sg14
F0.0
sg15
F0.0
sg16
F0.12709987503336093
sg17
F819288.0
sg18
F0.0
sg19
F0.4087666682347659
sg20
F750000.0
sg21
F877611.0
sg22
F0.0
sg23
F441096.0
sg24
F272880.0
sg25
F2146973.0
sg26
F3024584.0
sg27
F436515.0
ssS'BANNANTINE JAMES M'
p163
(dp164
g3
F566.0
sg4
F0.0
sg5
F56301.0
sg6
F0.0
sg7
F0.0
sg8
S'james.bannantine@enron.com'
p165
sg10
F39.0
sg11
F-5104.0
sg12
F-560222.0
sg13
F29.0
sg14
F465.0
sg15
F0.0
sg16
F0.0005206303884426602
sg17
F864523.0
sg18
F0.0
sg19
F5.723099944662557
sg20
F0.0
sg21
F5243487.0
sg22
F0.0
sg23
F1757552.0
sg24
F477.0
sg25
F916197.0
sg26
F6159684.0
sg27
F4046157.0
ssS'DUNCAN JOHN H'
p166
(dp167
g3
F0.0
sg4
F0.0
sg5
F0.0
sg6
F0.0
sg7
F0.0
sg8
g30
sg10
F0.0
sg11
F-25000.0
sg12
F0.0
sg13
F0.0
sg14
F0.0
sg15
F0.0
sg16
F0.0
sg17
F0.0
sg18
F102492.0
sg19
F4.797269395550509
sg20
F0.0
sg21
F371750.0
sg22
F0.0
sg23
F0.0
sg24
F0.0
sg25
F77492.0
sg26
F449242.0
sg27
F371750.0
ssS'SHAPIRO RICHARD S'
p168
(dp169
g3
F15149.0
sg4
F0.0
sg5
F137767.0
sg6
F0.0
sg7
F0.0
sg8
S'richard.shapiro@enron.com'
p170
sg10
F74.0
sg11
F0.0
sg12
F0.0
sg13
F1215.0
sg14
F4527.0
sg15
F0.0
sg16
F0.25443384130082036
sg17
F705.0
sg18
F0.0
sg19
F0.9332919167735176
sg20
F650000.0
sg21
F987001.0
sg22
F65.0
sg23
F379164.0
sg24
F269076.0
sg25
F1057548.0
sg26
F2044549.0
sg27
F607837.0
ssS'SHERRIFF JOHN R'
p171
(dp172
g3
F3187.0
sg4
F0.0
sg5
F0.0
sg6
F0.0
sg7
F554422.0
sg8
S'john.sherriff@enron.com'
p173
sg10
F28.0
sg11
F0.0
sg12
F0.0
sg13
F92.0
sg14
F2103.0
sg15
F0.0
sg16
F0.09890233584629565
sg17
F1852186.0
sg18
F0.0
sg19
F0.7217305579108491
sg20
F1500000.0
sg21
F3128982.0
sg22
F23.0
sg23
F1293424.0
sg24
F428780.0
sg25
F4335388.0
sg26
F7464370.0
sg27
F1835558.0
ssS'SHELBY REX'
p174
(dp175
g3
F225.0
sg4
F0.0
sg5
F22884.0
sg6
F1.0
sg7
F0.0
sg8
S'rex.shelby@enron.com'
p176
sg10
F13.0
sg11
F-4167.0
sg12
F0.0
sg13
F39.0
sg14
F91.0
sg15
F0.0
sg16
F0.10571664541627888
sg17
F1573324.0
sg18
F0.0
sg19
F1.2443907709274733
sg20
F200000.0
sg21
F2493616.0
sg22
F14.0
sg23
F869220.0
sg24
F211844.0
sg25
F2003885.0
sg26
F4497501.0
sg27
F1624396.0
ssS'LEMAISTRE CHARLES'
p177
(dp178
g3
F0.0
sg4
F0.0
sg5
F0.0
sg6
F0.0
sg7
F0.0
sg8
g30
sg10
F0.0
sg11
F-25000.0
sg12
F0.0
sg13
F0.0
sg14
F0.0
sg15
F0.0
sg16
F0.0
sg17
F0.0
sg18
F112492.0
sg19
F4.719037169112605
sg20
F0.0
sg21
F412878.0
sg22
F0.0
sg23
F0.0
sg24
F0.0
sg25
F87492.0
sg26
F500370.0
sg27
F412878.0
ssS'DEFFNER JOSEPH M'
p179
(dp180
g3
F714.0
sg4
F0.0
sg5
F41626.0
sg6
F0.0
sg7
F335349.0
sg8
S'joseph.deffner@enron.com'
p181
sg10
F115.0
sg11
F0.0
sg12
F0.0
sg13
F74.0
sg14
F552.0
sg15
F0.0
sg16
F0.17053834487928257
sg17
F25553.0
sg18
F0.0
sg19
F0.13172641519580955
sg20
F600000.0
sg21
F159211.0
sg22
F4.0
sg23
F141833.0
sg24
F206121.0
sg25
F1208649.0
sg26
F1367860.0
sg27
F17378.0
ssS'KISHKILL JOSEPH G'
p182
(dp183
g3
F0.0
sg4
F0.0
sg5
F116335.0
sg6
F0.0
sg7
F0.0
sg8
S'joe.kishkill@enron.com'
p184
sg10
F0.0
sg11
F-51042.0
sg12
F0.0
sg13
F0.0
sg14
F0.0
sg15
F0.0
sg16
F0.2471939122934447
sg17
F465357.0
sg18
F0.0
sg19
F1.467373910477574
sg20
F0.0
sg21
F1034346.0
sg22
F0.0
sg23
F1034346.0
sg24
F174246.0
sg25
F704896.0
sg26
F1739242.0
sg27
F0.0
ssS'WHALLEY LAWRENCE G'
p185
(dp186
g3
F6019.0
sg4
F0.0
sg5
F57838.0
sg6
F0.0
sg7
F808346.0
sg8
S'greg.whalley@enron.com'
p187
sg10
F186.0
sg11
F0.0
sg12
F0.0
sg13
F556.0
sg14
F3920.0
sg15
F0.0
sg16
F0.10910869608904103
sg17
F301026.0
sg18
F0.0
sg19
F1.2996345969085683
sg20
F3000000.0
sg21
F6079137.0
sg22
F24.0
sg23
F2796177.0
sg24
F510364.0
sg25
F4677574.0
sg26
F10756711.0
sg27
F3282960.0
ssS'MCCARTY DANNY J'
p188
(dp189
g3
F1433.0
sg4
F0.0
sg5
F0.0
sg6
F0.0
sg7
F0.0
sg8
S'danny.mccarty@enron.com'
p190
sg10
F25.0
sg11
F0.0
sg12
F0.0
sg13
F215.0
sg14
F508.0
sg15
F0.0
sg16
F0.0
sg17
F0.0
sg18
F0.0
sg19
F0.0
sg20
F0.0
sg21
F758931.0
sg22
F2.0
sg23
F94556.0
sg24
F0.0
sg25
F0.0
sg26
F758931.0
sg27
F664375.0
ssS'MCCONNELL MICHAEL S'
p191
(dp192
g3
F3329.0
sg4
F0.0
sg5
F81364.0
sg6
F0.0
sg7
F554422.0
sg8
S'mike.mcconnell@enron.com'
p193
sg10
F92.0
sg11
F0.0
sg12
F0.0
sg13
F2742.0
sg14
F2189.0
sg15
F0.0
sg16
F0.17371478715729402
sg17
F540.0
sg18
F0.0
sg19
F1.475840929986428
sg20
F1100000.0
sg21
F3101279.0
sg22
F194.0
sg23
F1478269.0
sg24
F365038.0
sg25
F2101364.0
sg26
F5202643.0
sg27
F1623010.0
ssS'DELAINEY DAVID W'
p194
(dp195
g3
F3093.0
sg4
F0.0
sg5
F86174.0
sg6
F1.0
sg7
F1294981.0
sg8
S'david.delainey@enron.com'
p196
sg10
F66.0
sg11
F0.0
sg12
F0.0
sg13
F3069.0
sg14
F2097.0
sg15
F0.0
sg16
F0.07690914386942319
sg17
F1661.0
sg18
F0.0
sg19
F0.7612209321060602
sg20
F3000000.0
sg21
F3614261.0
sg22
F609.0
sg23
F1323148.0
sg24
F365163.0
sg25
F4747979.0
sg26
F8362240.0
sg27
F2291113.0
ssS'SULLIVAN-SHAKLOVITZ COLLEEN'
p197
(dp198
g3
F0.0
sg4
F181993.0
sg5
F0.0
sg6
F0.0
sg7
F554422.0
sg8
g30
sg10
F0.0
sg11
F0.0
sg12
F0.0
sg13
F0.0
sg14
F0.0
sg15
F0.0
sg16
F0.162883897229816
sg17
F162.0
sg18
F0.0
sg19
F1.3632529348900693
sg20
F100000.0
sg21
F1362375.0
sg22
F0.0
sg23
F0.0
sg24
F162779.0
sg25
F999356.0
sg26
F2361731.0
sg27
F1362375.0
ssS'WROBEL BRUCE'
p199
(dp200
g3
F0.0
sg4
F0.0
sg5
F0.0
sg6
F0.0
sg7
F0.0
sg8
g30
sg10
F0.0
sg11
F0.0
sg12
F0.0
sg13
F0.0
sg14
F0.0
sg15
F0.0
sg16
F0.0
sg17
F0.0
sg18
F0.0
sg19
F0.0
sg20
F0.0
sg21
F139130.0
sg22
F0.0
sg23
F0.0
sg24
F0.0
sg25
F0.0
sg26
F139130.0
sg27
F139130.0
ssS'LINDHOLM TOD A'
p201
(dp202
g3
F0.0
sg4
F204075.0
sg5
F57727.0
sg6
F0.0
sg7
F175000.0
sg8
S'tod.lindholm@enron.com'
p203
sg10
F0.0
sg11
F0.0
sg12
F0.0
sg13
F0.0
sg14
F0.0
sg15
F0.0
sg16
F0.2699622897421934
sg17
F2630.0
sg18
F0.0
sg19
F3.498397628009942
sg20
F200000.0
sg21
F3064208.0
sg22
F0.0
sg23
F514847.0
sg24
F236457.0
sg25
F875889.0
sg26
F3940097.0
sg27
F2549361.0
ssS'MEYER JEROME J'
p204
(dp205
g3
F0.0
sg4
F0.0
sg5
F2151.0
sg6
F0.0
sg7
F0.0
sg8
g30
sg10
F0.0
sg11
F-38346.0
sg12
F0.0
sg13
F0.0
sg14
F0.0
sg15
F0.0
sg16
F0.0
sg17
F0.0
sg18
F38346.0
sg19
F0.0
sg20
F0.0
sg21
F0.0
sg22
F0.0
sg23
F0.0
sg24
F0.0
sg25
F2151.0
sg26
F2151.0
sg27
F0.0
ssS'LAY KENNETH L'
p206
(dp207
g3
F4273.0
sg4
F202911.0
sg5
F99832.0
sg6
F1.0
sg7
F3600000.0
sg8
S'kenneth.lay@enron.com'
p208
sg10
F123.0
sg11
F-300000.0
sg12
F0.0
sg13
F36.0
sg14
F2411.0
sg15
F81525000.0
sg16
F0.010354607410233042
sg17
F10359729.0
sg18
F0.0
sg19
F0.474219545803843
sg20
F7000000.0
sg21
F49110078.0
sg22
F16.0
sg23
F14761694.0
sg24
F1072321.0
sg25
F103559793.0
sg26
F152669871.0
sg27
F34348384.0
ssS'BUTTS ROBERT H'
p209
(dp210
g3
F0.0
sg4
F0.0
sg5
F9410.0
sg6
F0.0
sg7
F175000.0
sg8
S'bob.butts@enron.com'
p211
sg10
F0.0
sg11
F-75000.0
sg12
F0.0
sg13
F0.0
sg14
F0.0
sg15
F0.0
sg16
F0.20566192349372672
sg17
F150656.0
sg18
F0.0
sg19
F0.32842474964257123
sg20
F750000.0
sg21
F417619.0
sg22
F0.0
sg23
F417619.0
sg24
F261516.0
sg25
F1271582.0
sg26
F1689201.0
sg27
F0.0
ssS'OLSON CINDY K'
p212
(dp213
g3
F1184.0
sg4
F77716.0
sg5
F63791.0
sg6
F0.0
sg7
F100000.0
sg8
S'cindy.olson@enron.com'
p214
sg10
F20.0
sg11
F0.0
sg12
F0.0
sg13
F52.0
sg14
F856.0
sg15
F0.0
sg16
F0.2490077991339004
sg17
F972.0
sg18
F0.0
sg19
F1.9724938084395907
sg20
F750000.0
sg21
F2606763.0
sg22
F15.0
sg23
F969729.0
sg24
F329078.0
sg25
F1321557.0
sg26
F3928320.0
sg27
F1637034.0
ssS'MCDONALD REBECCA'
p215
(dp216
g3
F894.0
sg4
F0.0
sg5
F0.0
sg6
F0.0
sg7
F0.0
sg8
S'rebecca.mcdonald@enron.com'
p217
sg10
F54.0
sg11
F0.0
sg12
F0.0
sg13
F13.0
sg14
F720.0
sg15
F0.0
sg16
F0.0
sg17
F0.0
sg18
F0.0
sg19
F0.0
sg20
F0.0
sg21
F1691366.0
sg22
F1.0
sg23
F934065.0
sg24
F0.0
sg25
F0.0
sg26
F1691366.0
sg27
F757301.0
ssS'CUMBERLAND MICHAEL S'
p218
(dp219
g3
F0.0
sg4
F0.0
sg5
F22344.0
sg6
F0.0
sg7
F275000.0
sg8
g30
sg10
F0.0
sg11
F0.0
sg12
F0.0
sg13
F0.0
sg14
F0.0
sg15
F0.0
sg16
F0.2288478580516761
sg17
F713.0
sg18
F0.0
sg19
F0.2573655001014907
sg20
F325000.0
sg21
F207940.0
sg22
F0.0
sg23
F207940.0
sg24
F184899.0
sg25
F807956.0
sg26
F1015896.0
sg27
F0.0
ssS'GAHN ROBERT S'
p220
(dp221
g3
F0.0
sg4
F73122.0
sg5
F50080.0
sg6
F0.0
sg7
F0.0
sg8
g30
sg10
F0.0
sg11
F-1042.0
sg12
F0.0
sg13
F0.0
sg14
F0.0
sg15
F0.0
sg16
F0.21320363985631563
sg17
F76547.0
sg18
F0.0
sg19
F0.3537778221933521
sg20
F509870.0
sg21
F318607.0
sg22
F0.0
sg23
F235370.0
sg24
F192008.0
sg25
F900585.0
sg26
F1219192.0
sg27
F83237.0
ssS'MCCLELLAN GEORGE'
p222
(dp223
g3
F1744.0
sg4
F0.0
sg5
F228763.0
sg6
F0.0
sg7
F0.0
sg8
S'george.mcclellan@enron.com'
p224
sg10
F52.0
sg11
F-125000.0
sg12
F0.0
sg13
F49.0
sg14
F1469.0
sg15
F0.0
sg16
F0.1997424859508494
sg17
F51587.0
sg18
F0.0
sg19
F0.7187500710893466
sg20
F900000.0
sg21
F947861.0
sg22
F0.0
sg23
F441096.0
sg24
F263413.0
sg25
F1318763.0
sg26
F2266624.0
sg27
F506765.0
ssS'HERMANN ROBERT J'
p225
(dp226
g3
F0.0
sg4
F0.0
sg5
F48357.0
sg6
F0.0
sg7
F150000.0
sg8
S'robert.hermann@enron.com'
p227
sg10
F0.0
sg11
F-280000.0
sg12
F0.0
sg13
F0.0
sg14
F0.0
sg15
F0.0
sg16
F0.20244384995001777
sg17
F416441.0
sg18
F0.0
sg19
F0.5149534359799639
sg20
F700000.0
sg21
F668132.0
sg22
F0.0
sg23
F480632.0
sg24
F262663.0
sg25
F1297461.0
sg26
F1965593.0
sg27
F187500.0
ssS'SCRIMSHAW MATTHEW'
p228
(dp229
g3
F0.0
sg4
F0.0
sg5
F0.0
sg6
F0.0
sg7
F0.0
sg8
S'matthew.scrimshaw@enron.com'
p230
sg10
F0.0
sg11
F0.0
sg12
F0.0
sg13
F0.0
sg14
F0.0
sg15
F0.0
sg16
F0.0
sg17
F0.0
sg18
F0.0
sg19
F0.0
sg20
F0.0
sg21
F759557.0
sg22
F0.0
sg23
F0.0
sg24
F0.0
sg25
F0.0
sg26
F759557.0
sg27
F759557.0
ssS'GATHMANN WILLIAM D'
p231
(dp232
g3
F0.0
sg4
F0.0
sg5
F0.0
sg6
F0.0
sg7
F0.0
sg8
g30
sg10
F0.0
sg11
F0.0
sg12
F-72419.0
sg13
F0.0
sg14
F0.0
sg15
F0.0
sg16
F0.0
sg17
F0.0
sg18
F0.0
sg19
F0.0
sg20
F0.0
sg21
F1945360.0
sg22
F0.0
sg23
F264013.0
sg24
F0.0
sg25
F0.0
sg26
F1945360.0
sg27
F1753766.0
ssS'HAEDICKE MARK E'
p233
(dp234
g3
F4009.0
sg4
F2157527.0
sg5
F76169.0
sg6
F0.0
sg7
F983346.0
sg8
S'mark.haedicke@enron.com'
p235
sg10
F180.0
sg11
F-934484.0
sg12
F-329825.0
sg13
F1941.0
sg14
F1847.0
sg15
F0.0
sg16
F0.09694705841959127
sg17
F52382.0
sg18
F0.0
sg19
F0.20810584947390107
sg20
F1150000.0
sg21
F803094.0
sg22
F61.0
sg23
F524169.0
sg24
F374125.0
sg25
F3859065.0
sg26
F4662159.0
sg27
F608750.0
ssS'BOWEN JR RAYMOND M'
p236
(dp237
g3
F1858.0
sg4
F0.0
sg5
F65907.0
sg6
F1.0
sg7
F974293.0
sg8
S'raymond.bowen@enron.com'
p238
sg10
F140.0
sg11
F-833.0
sg12
F0.0
sg13
F27.0
sg14
F1593.0
sg15
F0.0
sg16
F0.10436100837994162
sg17
F1621.0
sg18
F0.0
sg19
F0.09441715559960728
sg20
F1350000.0
sg21
F252055.0
sg22
F15.0
sg23
F252055.0
sg24
F278601.0
sg25
F2669589.0
sg26
F2921644.0
sg27
F0.0
ssS'GILLIS JOHN'
p239
(dp240
g3
F0.0
sg4
F0.0
sg5
F0.0
sg6
F0.0
sg7
F0.0
sg8
g30
sg10
F0.0
sg11
F0.0
sg12
F0.0
sg13
F0.0
sg14
F0.0
sg15
F0.0
sg16
F0.0
sg17
F0.0
sg18
F0.0
sg19
F0.0
sg20
F0.0
sg21
F85641.0
sg22
F0.0
sg23
F75838.0
sg24
F0.0
sg25
F0.0
sg26
F85641.0
sg27
F9803.0
ssS'FITZGERALD JAY L'
p241
(dp242
g3
F936.0
sg4
F0.0
sg5
F23870.0
sg6
F0.0
sg7
F556416.0
sg8
S'jay.fitzgerald@enron.com'
p243
sg10
F1.0
sg11
F0.0
sg12
F0.0
sg13
F16.0
sg14
F723.0
sg15
F0.0
sg16
F0.14076122180545456
sg17
F285414.0
sg18
F0.0
sg19
F1.145865624582555
sg20
F350000.0
sg21
F1621236.0
sg22
F8.0
sg23
F956775.0
sg24
F199157.0
sg25
F1414857.0
sg26
F3036093.0
sg27
F664461.0
ssS'MORAN MICHAEL P'
p244
(dp245
g3
F672.0
sg4
F0.0
sg5
F0.0
sg6
F0.0
sg7
F0.0
sg8
S'michael.moran@enron.com'
p246
sg10
F0.0
sg11
F0.0
sg12
F0.0
sg13
F19.0
sg14
F127.0
sg15
F0.0
sg16
F0.0
sg17
F0.0
sg18
F0.0
sg19
F0.0
sg20
F0.0
sg21
F221141.0
sg22
F0.0
sg23
F161602.0
sg24
F0.0
sg25
F0.0
sg26
F221141.0
sg27
F59539.0
ssS'REDMOND BRIAN L'
p247
(dp248
g3
F1671.0
sg4
F0.0
sg5
F14689.0
sg6
F0.0
sg7
F0.0
sg8
S'brian.redmond@enron.com'
p249
sg10
F204.0
sg11
F0.0
sg12
F0.0
sg13
F221.0
sg14
F1063.0
sg15
F0.0
sg16
F0.8682943449685732
sg17
F0.0
sg18
F0.0
sg19
F70.74683714549579
sg20
F0.0
sg21
F7890324.0
sg22
F49.0
sg23
F381285.0
sg24
F96840.0
sg25
F111529.0
sg26
F8001853.0
sg27
F7509039.0
ssS'BAZELIDES PHILIP J'
p250
(dp251
g3
F0.0
sg4
F684694.0
sg5
F0.0
sg6
F0.0
sg7
F93750.0
sg8
g30
sg10
F0.0
sg11
F0.0
sg12
F0.0
sg13
F0.0
sg14
F0.0
sg15
F0.0
sg16
F0.0939595598835533
sg17
F874.0
sg18
F0.0
sg19
F1.8597535738534372
sg20
F0.0
sg21
F1599641.0
sg22
F0.0
sg23
F0.0
sg24
F80818.0
sg25
F860136.0
sg26
F2459777.0
sg27
F1599641.0
ssS'BELDEN TIMOTHY N'
p252
(dp253
g3
F7991.0
sg4
F2144013.0
sg5
F17355.0
sg6
F1.0
sg7
F0.0
sg8
S'tim.belden@enron.com'
p254
sg10
F228.0
sg11
F-2334434.0
sg12
F0.0
sg13
F484.0
sg14
F5521.0
sg15
F0.0
sg16
F0.03889738132153562
sg17
F210698.0
sg18
F0.0
sg19
F0.20188653180966368
sg20
F5249999.0
sg21
F1110705.0
sg22
F108.0
sg23
F157569.0
sg24
F213999.0
sg25
F5501630.0
sg26
F6612335.0
sg27
F953136.0
ssS'DURAN WILLIAM D'
p255
(dp256
g3
F904.0
sg4
F0.0
sg5
F25785.0
sg6
F0.0
sg7
F1105218.0
sg8
S'w.duran@enron.com'
p257
sg10
F106.0
sg11
F0.0
sg12
F0.0
sg13
F12.0
sg14
F599.0
sg15
F0.0
sg16
F0.10065242637929396
sg17
F1568.0
sg18
F0.0
sg19
F0.7839005418812638
sg20
F750000.0
sg21
F1640910.0
sg22
F3.0
sg23
F189041.0
sg24
F210692.0
sg25
F2093263.0
sg26
F3734173.0
sg27
F1451869.0
ssS'THORN TERENCE H'
p258
(dp259
g3
F266.0
sg4
F16586.0
sg5
F46145.0
sg6
F0.0
sg7
F200000.0
sg8
S'terence.thorn@enron.com'
p260
sg10
F0.0
sg11
F0.0
sg12
F0.0
sg13
F41.0
sg14
F73.0
sg15
F0.0
sg16
F0.24366917438419755
sg17
F426629.0
sg18
F0.0
sg19
F5.285841398294811
sg20
F0.0
sg21
F4817796.0
sg22
F0.0
sg23
F365320.0
sg24
F222093.0
sg25
F911453.0
sg26
F5729249.0
sg27
F4452476.0
ssS'FASTOW ANDREW S'
p261
(dp262
g3
F0.0
sg4
F0.0
sg5
F55921.0
sg6
F1.0
sg7
F1736055.0
sg8
S'andrew.fastow@enron.com'
p263
sg10
F0.0
sg11
F-1386055.0
sg12
F0.0
sg13
F0.0
sg14
F0.0
sg15
F0.0
sg16
F0.1817998806146489
sg17
F277464.0
sg18
F0.0
sg19
F0.7402436302717358
sg20
F1300000.0
sg21
F1794412.0
sg22
F0.0
sg23
F1794412.0
sg24
F440698.0
sg25
F2424083.0
sg26
F4218495.0
sg27
F0.0
ssS'FOY JOE'
p264
(dp265
g3
F57.0
sg4
F181755.0
sg5
F0.0
sg6
F0.0
sg7
F0.0
sg8
S'tracy.foy@enron.com'
p266
sg10
F0.0
sg11
F0.0
sg12
F0.0
sg13
F13.0
sg14
F2.0
sg15
F0.0
sg16
F0.0
sg17
F0.0
sg18
F0.0
sg19
F1.8895436164067014
sg20
F0.0
sg21
F343434.0
sg22
F0.0
sg23
F0.0
sg24
F0.0
sg25
F181755.0
sg26
F525189.0
sg27
F343434.0
ssS'CALGER CHRISTOPHER F'
p267
(dp268
g3
F2598.0
sg4
F0.0
sg5
F35818.0
sg6
F1.0
sg7
F375304.0
sg8
S'christopher.calger@enron.com'
p269
sg10
F199.0
sg11
F-262500.0
sg12
F0.0
sg13
F144.0
sg14
F2188.0
sg15
F0.0
sg16
F0.14651951415759315
sg17
F486.0
sg18
F0.0
sg19
F0.07687868641252928
sg20
F1250000.0
sg21
F126027.0
sg22
F25.0
sg23
F126027.0
sg24
F240189.0
sg25
F1639297.0
sg26
F1765324.0
sg27
F0.0
ssS'RICE KENNETH D'
p270
(dp271
g3
F905.0
sg4
F0.0
sg5
F46950.0
sg6
F1.0
sg7
F1617011.0
sg8
S'ken.rice@enron.com'
p272
sg10
F42.0
sg11
F-3504386.0
sg12
F0.0
sg13
F18.0
sg14
F864.0
sg15
F0.0
sg16
F0.8328601128601129
sg17
F174839.0
sg18
F0.0
sg19
F44.63427185427185
sg20
F1750000.0
sg21
F22542539.0
sg22
F4.0
sg23
F2748364.0
sg24
F420636.0
sg25
F505050.0
sg26
F23047589.0
sg27
F19794175.0
ssS'KAMINSKI WINCENTY J'
p273
(dp274
g3
F4607.0
sg4
F0.0
sg5
F83585.0
sg6
F0.0
sg7
F323466.0
sg8
S'vince.kaminski@enron.com'
p275
sg10
F41.0
sg11
F0.0
sg12
F0.0
sg13
F14368.0
sg14
F583.0
sg15
F0.0
sg16
F0.2531244795601116
sg17
F4669.0
sg18
F0.0
sg19
F0.8980660108702353
sg20
F400000.0
sg21
F976037.0
sg22
F171.0
sg23
F126027.0
sg24
F275101.0
sg25
F1086821.0
sg26
F2062858.0
sg27
F850010.0
ssS'COX DAVID'
p276
(dp277
g3
F102.0
sg4
F0.0
sg5
F27861.0
sg6
F0.0
sg7
F0.0
sg8
S'chip.cox@enron.com'
p278
sg10
F0.0
sg11
F-41250.0
sg12
F0.0
sg13
F33.0
sg14
F71.0
sg15
F0.0
sg16
F0.28535500044035145
sg17
F494.0
sg18
F0.0
sg19
F0.4500055838379216
sg20
F800000.0
sg21
F495633.0
sg22
F4.0
sg23
F378082.0
sg24
F314288.0
sg25
F1101393.0
sg26
F1597026.0
sg27
F117551.0
ssS'OVERDYKE JR JERE C'
p279
(dp280
g3
F0.0
sg4
F0.0
sg5
F18834.0
sg6
F0.0
sg7
F135836.0
sg8
S'jere.overdyke@enron.com'
p281
sg10
F0.0
sg11
F0.0
sg12
F0.0
sg13
F0.0
sg14
F0.0
sg15
F0.0
sg16
F0.38008783483527964
sg17
F176.0
sg18
F0.0
sg19
F29.25530151689239
sg20
F0.0
sg21
F7307594.0
sg22
F0.0
sg23
F2041016.0
sg24
F94941.0
sg25
F249787.0
sg26
F7557381.0
sg27
F5266578.0
ssS'PEREIRA PAULO V. FERRAZ'
p282
(dp283
g3
F0.0
sg4
F0.0
sg5
F27942.0
sg6
F0.0
sg7
F0.0
sg8
g30
sg10
F0.0
sg11
F-101250.0
sg12
F0.0
sg13
F0.0
sg14
F0.0
sg15
F0.0
sg16
F0.0
sg17
F0.0
sg18
F101250.0
sg19
F0.0
sg20
F0.0
sg21
F0.0
sg22
F0.0
sg23
F0.0
sg24
F0.0
sg25
F27942.0
sg26
F27942.0
sg27
F0.0
ssS'STABLER FRANK'
p284
(dp285
g3
F0.0
sg4
F0.0
sg5
F16514.0
sg6
F0.0
sg7
F0.0
sg8
S'frank.stabler@enron.com'
p286
sg10
F0.0
sg11
F0.0
sg12
F0.0
sg13
F0.0
sg14
F0.0
sg15
F0.0
sg16
F0.21536264698715119
sg17
F356071.0
sg18
F0.0
sg19
F0.46015644459471244
sg20
F500000.0
sg21
F511734.0
sg22
F0.0
sg23
F511734.0
sg24
F239502.0
sg25
F1112087.0
sg26
F1623821.0
sg27
F0.0
ssS'SKILLING JEFFREY K'
p287
(dp288
g3
F3627.0
sg4
F0.0
sg5
F29336.0
sg6
F1.0
sg7
F1920000.0
sg8
S'jeff.skilling@enron.com'
p289
sg10
F88.0
sg11
F0.0
sg12
F0.0
sg13
F108.0
sg14
F2042.0
sg15
F0.0
sg16
F0.12798506826665756
sg17
F22122.0
sg18
F0.0
sg19
F3.0052430598904767
sg20
F5600000.0
sg21
F26093672.0
sg22
F30.0
sg23
F6843672.0
sg24
F1111258.0
sg25
F8682716.0
sg26
F34776388.0
sg27
F19250000.0
ssS'BLAKE JR. NORMAN P'
p290
(dp291
g3
F0.0
sg4
F0.0
sg5
F1279.0
sg6
F0.0
sg7
F0.0
sg8
g30
sg10
F0.0
sg11
F-113784.0
sg12
F0.0
sg13
F0.0
sg14
F0.0
sg15
F0.0
sg16
F0.0
sg17
F0.0
sg18
F113784.0
sg19
F0.0
sg20
F0.0
sg21
F0.0
sg22
F0.0
sg23
F0.0
sg24
F0.0
sg25
F1279.0
sg26
F1279.0
sg27
F0.0
ssS'SHERRICK JEFFREY B'
p292
(dp293
g3
F613.0
sg4
F0.0
sg5
F0.0
sg6
F0.0
sg7
F0.0
sg8
S'jeffrey.sherrick@enron.com'
p294
sg10
F39.0
sg11
F0.0
sg12
F0.0
sg13
F25.0
sg14
F583.0
sg15
F0.0
sg16
F0.0
sg17
F0.0
sg18
F0.0
sg19
F0.0
sg20
F0.0
sg21
F1832468.0
sg22
F18.0
sg23
F405999.0
sg24
F0.0
sg25
F0.0
sg26
F1832468.0
sg27
F1426469.0
ssS'PRENTICE JAMES'
p295
(dp296
g3
F0.0
sg4
F564348.0
sg5
F0.0
sg6
F0.0
sg7
F0.0
sg8
S'james.prentice@enron.com'
p297
sg10
F0.0
sg11
F0.0
sg12
F0.0
sg13
F0.0
sg14
F0.0
sg15
F0.0
sg16
F0.0
sg17
F0.0
sg18
F0.0
sg19
F1.940363038408925
sg20
F0.0
sg21
F1095040.0
sg22
F0.0
sg23
F208809.0
sg24
F0.0
sg25
F564348.0
sg26
F1659388.0
sg27
F886231.0
ssS'GRAY RODNEY'
p298
(dp299
g3
F0.0
sg4
F93585.0
sg5
F0.0
sg6
F0.0
sg7
F365625.0
sg8
g30
sg10
F0.0
sg11
F0.0
sg12
F0.0
sg13
F0.0
sg14
F0.0
sg15
F0.0
sg16
F0.005768938951282772
sg17
F680833.0
sg18
F0.0
sg19
F0.0
sg20
F0.0
sg21
F0.0
sg22
F0.0
sg23
F0.0
sg24
F6615.0
sg25
F1146658.0
sg26
F1146658.0
sg27
F0.0
ssS'PICKERING MARK R'
p300
(dp301
g3
F898.0
sg4
F0.0
sg5
F31653.0
sg6
F0.0
sg7
F0.0
sg8
S'mark.pickering@enron.com'
p302
sg10
F7.0
sg11
F0.0
sg12
F0.0
sg13
F67.0
sg14
F728.0
sg15
F400000.0
sg16
F0.47237450331364617
sg17
F0.0
sg18
F0.0
sg19
F0.020767439009439746
sg20
F300000.0
sg21
F28798.0
sg22
F0.0
sg23
F0.0
sg24
F655037.0
sg25
F1386690.0
sg26
F1415488.0
sg27
F28798.0
ssS'NOLES JAMES L'
p303
(dp304
g3
F0.0
sg4
F774401.0
sg5
F0.0
sg6
F0.0
sg7
F0.0
sg8
g30
sg10
F0.0
sg11
F0.0
sg12
F-94556.0
sg13
F0.0
sg14
F0.0
sg15
F0.0
sg16
F0.0
sg17
F0.0
sg18
F0.0
sg19
F0.47611637898194864
sg20
F0.0
sg21
F368705.0
sg22
F0.0
sg23
F463261.0
sg24
F0.0
sg25
F774401.0
sg26
F1143106.0
sg27
F0.0
ssS'KEAN STEVEN J'
p305
(dp306
g3
F12754.0
sg4
F0.0
sg5
F41953.0
sg6
F0.0
sg7
F300000.0
sg8
S'steven.kean@enron.com'
p307
sg10
F140.0
sg11
F0.0
sg12
F0.0
sg13
F6759.0
sg14
F3639.0
sg15
F0.0
sg16
F0.23137791684453757
sg17
F1231.0
sg18
F0.0
sg19
F3.521353093122719
sg20
F1000000.0
sg21
F6153642.0
sg22
F387.0
sg23
F4131594.0
sg24
F404338.0
sg25
F1747522.0
sg26
F7901164.0
sg27
F2022048.0
ssS'FOWLER PEGGY'
p308
(dp309
g3
F517.0
sg4
F0.0
sg5
F0.0
sg6
F0.0
sg7
F0.0
sg8
S'kulvinder.fowler@enron.com'
p310
sg10
F0.0
sg11
F0.0
sg12
F0.0
sg13
F36.0
sg14
F10.0
sg15
F0.0
sg16
F0.0
sg17
F0.0
sg18
F0.0
sg19
F0.0
sg20
F0.0
sg21
F1884748.0
sg22
F0.0
sg23
F560170.0
sg24
F0.0
sg25
F0.0
sg26
F1884748.0
sg27
F1324578.0
ssS'WASAFF GEORGE'
p311
(dp312
g3
F400.0
sg4
F831299.0
sg5
F0.0
sg6
F0.0
sg7
F200000.0
sg8
S'george.wasaff@enron.com'
p313
sg10
F22.0
sg11
F-583325.0
sg12
F0.0
sg13
F30.0
sg14
F337.0
sg15
F0.0
sg16
F0.2513507895919837
sg17
F1425.0
sg18
F0.0
sg19
F1.9880480860793024
sg20
F325000.0
sg21
F2056427.0
sg22
F7.0
sg23
F388167.0
sg24
F259996.0
sg25
F1034395.0
sg26
F3090822.0
sg27
F1668260.0
ssS'WHITE JR THOMAS E'
p314
(dp315
g3
F0.0
sg4
F0.0
sg5
F81353.0
sg6
F0.0
sg7
F0.0
sg8
S'thomas.white@enron.com'
p316
sg10
F0.0
sg11
F0.0
sg12
F0.0
sg13
F0.0
sg14
F0.0
sg15
F0.0
sg16
F0.1641592899766796
sg17
F1085463.0
sg18
F0.0
sg19
F7.829013642245313
sg20
F450000.0
sg21
F15144123.0
sg22
F0.0
sg23
F13847074.0
sg24
F317543.0
sg25
F1934359.0
sg26
F17078482.0
sg27
F1297049.0
ssS'CHRISTODOULOU DIOMEDES'
p317
(dp318
g3
F0.0
sg4
F0.0
sg5
F0.0
sg6
F0.0
sg7
F0.0
sg8
S'diomedes.christodoulou@enron.com'
p319
sg10
F0.0
sg11
F0.0
sg12
F0.0
sg13
F0.0
sg14
F0.0
sg15
F0.0
sg16
F0.0
sg17
F0.0
sg18
F0.0
sg19
F0.0
sg20
F0.0
sg21
F6077885.0
sg22
F0.0
sg23
F950730.0
sg24
F0.0
sg25
F0.0
sg26
F6077885.0
sg27
F5127155.0
ssS'ALLEN PHILLIP K'
p320
(dp321
g3
F2902.0
sg4
F2869717.0
sg5
F13868.0
sg6
F0.0
sg7
F304805.0
sg8
S'phillip.allen@enron.com'
p322
sg10
F47.0
sg11
F-3081055.0
sg12
F-126027.0
sg13
F2195.0
sg14
F1407.0
sg15
F0.0
sg16
F0.04503458847276874
sg17
F152.0
sg18
F0.0
sg19
F0.38567585443183344
sg20
F4175000.0
sg21
F1729541.0
sg22
F65.0
sg23
F126027.0
sg24
F201955.0
sg25
F4484442.0
sg26
F6213983.0
sg27
F1729541.0
ssS'SHARP VICTORIA T'
p323
(dp324
g3
F3136.0
sg4
F187469.0
sg5
F116337.0
sg6
F0.0
sg7
F422158.0
sg8
S'vicki.sharp@enron.com'
p325
sg10
F24.0
sg11
F0.0
sg12
F0.0
sg13
F136.0
sg14
F2477.0
sg15
F0.0
sg16
F0.15740200988131386
sg17
F2401.0
sg18
F0.0
sg19
F0.3134364428792441
sg20
F600000.0
sg21
F494136.0
sg22
F6.0
sg23
F213063.0
sg24
F248146.0
sg25
F1576511.0
sg26
F2070647.0
sg27
F281073.0
ssS'JAEDICKE ROBERT'
p326
(dp327
g3
F0.0
sg4
F0.0
sg5
F0.0
sg6
F0.0
sg7
F0.0
sg8
g30
sg10
F0.0
sg11
F-25000.0
sg12
F-44093.0
sg13
F0.0
sg14
F0.0
sg15
F0.0
sg16
F0.0
sg17
F0.0
sg18
F108750.0
sg19
F5.155223880597015
sg20
F0.0
sg21
F431750.0
sg22
F0.0
sg23
F44093.0
sg24
F0.0
sg25
F83750.0
sg26
F515500.0
sg27
F431750.0
ssS'WINOKUR JR. HERBERT S'
p328
(dp329
g3
F0.0
sg4
F0.0
sg5
F1413.0
sg6
F0.0
sg7
F0.0
sg8
g30
sg10
F0.0
sg11
F-25000.0
sg12
F0.0
sg13
F0.0
sg14
F0.0
sg15
F0.0
sg16
F0.0
sg17
F0.0
sg18
F108579.0
sg19
F0.0
sg20
F0.0
sg21
F0.0
sg22
F0.0
sg23
F0.0
sg24
F0.0
sg25
F84992.0
sg26
F84992.0
sg27
F0.0
ssS'BROWN MICHAEL'
p330
(dp331
g3
F1486.0
sg4
F0.0
sg5
F49288.0
sg6
F0.0
sg7
F0.0
sg8
S'michael.brown@enron.com'
p332
sg10
F13.0
sg11
F0.0
sg12
F0.0
sg13
F41.0
sg14
F761.0
sg15
F0.0
sg16
F0.0
sg17
F0.0
sg18
F0.0
sg19
F0.0
sg20
F0.0
sg21
F0.0
sg22
F1.0
sg23
F0.0
sg24
F0.0
sg25
F49288.0
sg26
F49288.0
sg27
F0.0
ssS'BADUM JAMES P'
p333
(dp334
g3
F0.0
sg4
F178980.0
sg5
F3486.0
sg6
F0.0
sg7
F0.0
sg8
g30
sg10
F0.0
sg11
F0.0
sg12
F0.0
sg13
F0.0
sg14
F0.0
sg15
F0.0
sg16
F0.0
sg17
F0.0
sg18
F0.0
sg19
F1.412959126631811
sg20
F0.0
sg21
F257817.0
sg22
F0.0
sg23
F0.0
sg24
F0.0
sg25
F182466.0
sg26
F440283.0
sg27
F257817.0
ssS'HUGHES JAMES A'
p335
(dp336
g3
F719.0
sg4
F0.0
sg5
F0.0
sg6
F0.0
sg7
F0.0
sg8
S'james.hughes@enron.com'
p337
sg10
F35.0
sg11
F0.0
sg12
F0.0
sg13
F34.0
sg14
F589.0
sg15
F0.0
sg16
F0.0
sg17
F0.0
sg18
F0.0
sg19
F0.0
sg20
F0.0
sg21
F1118394.0
sg22
F5.0
sg23
F363428.0
sg24
F0.0
sg25
F0.0
sg26
F1118394.0
sg27
F754966.0
ssS'REYNOLDS LAWRENCE'
p338
(dp339
g3
F0.0
sg4
F51365.0
sg5
F8409.0
sg6
F0.0
sg7
F156250.0
sg8
g30
sg10
F0.0
sg11
F-200000.0
sg12
F-140264.0
sg13
F0.0
sg14
F0.0
sg15
F0.0
sg16
F0.1936726028265416
sg17
F202052.0
sg18
F0.0
sg19
F10.702556562519804
sg20
F100000.0
sg21
F4221891.0
sg22
F0.0
sg23
F201483.0
sg24
F76399.0
sg25
F394475.0
sg26
F4616366.0
sg27
F4160672.0
ssS'DIMICHELE RICHARD G'
p340
(dp341
g3
F0.0
sg4
F0.0
sg5
F35812.0
sg6
F0.0
sg7
F694862.0
sg8
S'richard.dimichele@enron.com'
p342
sg10
F0.0
sg11
F0.0
sg12
F0.0
sg13
F0.0
sg14
F0.0
sg15
F0.0
sg16
F0.11096758610409556
sg17
F374689.0
sg18
F0.0
sg19
F3.5123528862813225
sg20
F1000000.0
sg21
F8317782.0
sg22
F0.0
sg23
F126027.0
sg24
F262788.0
sg25
F2368151.0
sg26
F10685933.0
sg27
F8191755.0
ssS'BHATNAGAR SANJAY'
p343
(dp344
g3
F523.0
sg4
F0.0
sg5
F0.0
sg6
F0.0
sg7
F0.0
sg8
S'sanjay.bhatnagar@enron.com'
p345
sg10
F0.0
sg11
F0.0
sg12
F15456290.0
sg13
F29.0
sg14
F463.0
sg15
F0.0
sg16
F0.0
sg17
F137864.0
sg18
F137864.0
sg19
F0.0
sg20
F0.0
sg21
F0.0
sg22
F1.0
sg23
F-2604490.0
sg24
F0.0
sg25
F15456290.0
sg26
F15456290.0
sg27
F2604490.0
ssS'CARTER REBECCA C'
p346
(dp347
g3
F312.0
sg4
F0.0
sg5
F0.0
sg6
F0.0
sg7
F75000.0
sg8
S'rebecca.carter@enron.com'
p348
sg10
F29.0
sg11
F-159792.0
sg12
F-307301.0
sg13
F15.0
sg14
F196.0
sg15
F0.0
sg16
F0.5482256568325875
sg17
F540.0
sg18
F0.0
sg19
F0.0
sg20
F300000.0
sg21
F0.0
sg22
F7.0
sg23
F307301.0
sg24
F261809.0
sg25
F477557.0
sg26
F477557.0
sg27
F0.0
ssS'BUCHANAN HAROLD G'
p349
(dp350
g3
F1088.0
sg4
F0.0
sg5
F600.0
sg6
F0.0
sg7
F304805.0
sg8
S'john.buchanan@enron.com'
p351
sg10
F0.0
sg11
F0.0
sg12
F0.0
sg13
F125.0
sg14
F23.0
sg15
F0.0
sg16
F0.23516811945721608
sg17
F1215.0
sg18
F0.0
sg19
F0.9619470964891238
sg20
F500000.0
sg21
F1014505.0
sg22
F0.0
sg23
F189041.0
sg24
F248017.0
sg25
F1054637.0
sg26
F2069142.0
sg27
F825464.0
ssS'YEAP SOON'
p352
(dp353
g3
F0.0
sg4
F0.0
sg5
F55097.0
sg6
F0.0
sg7
F0.0
sg8
g30
sg10
F0.0
sg11
F0.0
sg12
F0.0
sg13
F0.0
sg14
F0.0
sg15
F0.0
sg16
F0.0
sg17
F0.0
sg18
F0.0
sg19
F3.4985207906056592
sg20
F0.0
sg21
F192758.0
sg22
F0.0
sg23
F0.0
sg24
F0.0
sg25
F55097.0
sg26
F247855.0
sg27
F192758.0
ssS'MURRAY JULIA H'
p354
(dp355
g3
F2192.0
sg4
F0.0
sg5
F57580.0
sg6
F0.0
sg7
F125000.0
sg8
S'julia.murray@enron.com'
p356
sg10
F11.0
sg11
F0.0
sg12
F0.0
sg13
F45.0
sg14
F395.0
sg15
F0.0
sg16
F0.2823020115883644
sg17
F330.0
sg18
F0.0
sg19
F0.7356136588056548
sg20
F400000.0
sg21
F597461.0
sg22
F2.0
sg23
F196983.0
sg24
F229284.0
sg25
F812194.0
sg26
F1409655.0
sg27
F400478.0
ssS'GARLAND C KEVIN'
p357
(dp358
g3
F209.0
sg4
F0.0
sg5
F48405.0
sg6
F0.0
sg7
F375304.0
sg8
S'kevin.garland@enron.com'
p359
sg10
F10.0
sg11
F0.0
sg12
F0.0
sg13
F44.0
sg14
F178.0
sg15
F0.0
sg16
F0.14806932023551056
sg17
F60814.0
sg18
F0.0
sg19
F0.5720847332440029
sg20
F850000.0
sg21
F896153.0
sg22
F27.0
sg23
F259907.0
sg24
F231946.0
sg25
F1566469.0
sg26
F2462622.0
sg27
F636246.0
ssS'DODSON KEITH'
p360
(dp361
g3
F176.0
sg4
F0.0
sg5
F28164.0
sg6
F0.0
sg7
F0.0
sg8
S'keith.dodson@enron.com'
p362
sg10
F10.0
sg11
F0.0
sg12
F0.0
sg13
F14.0
sg14
F114.0
sg15
F0.0
sg16
F0.6907617341947422
sg17
F774.0
sg18
F0.0
sg19
F0.0
sg20
F70000.0
sg21
F0.0
sg22
F3.0
sg23
F0.0
sg24
F221003.0
sg25
F319941.0
sg26
F319941.0
sg27
F0.0
ssS'YEAGER F SCOTT'
p363
(dp364
g3
F0.0
sg4
F0.0
sg5
F53947.0
sg6
F1.0
sg7
F0.0
sg8
S'scott.yeager@enron.com'
p365
sg10
F0.0
sg11
F0.0
sg12
F0.0
sg13
F0.0
sg14
F0.0
sg15
F0.0
sg16
F0.4396419650291424
sg17
F147950.0
sg18
F0.0
sg19
F32.98572855953372
sg20
F0.0
sg21
F11884758.0
sg22
F0.0
sg23
F3576206.0
sg24
F158403.0
sg25
F360300.0
sg26
F12245058.0
sg27
F8308552.0
ssS'HIRKO JOSEPH'
p366
(dp367
g3
F0.0
sg4
F10259.0
sg5
F77978.0
sg6
F1.0
sg7
F0.0
sg8
S'joe.hirko@enron.com'
p368
sg10
F0.0
sg11
F0.0
sg12
F0.0
sg13
F0.0
sg14
F0.0
sg15
F0.0
sg16
F0.0
sg17
F2856.0
sg18
F0.0
sg19
F337.7434490026676
sg20
F0.0
sg21
F30766064.0
sg22
F0.0
sg23
F0.0
sg24
F0.0
sg25
F91093.0
sg26
F30857157.0
sg27
F30766064.0
ssS'DIETRICH JANET R'
p369
(dp370
g3
F2572.0
sg4
F0.0
sg5
F3475.0
sg6
F0.0
sg7
F556416.0
sg8
S'janet.dietrich@enron.com'
p371
sg10
F305.0
sg11
F0.0
sg12
F0.0
sg13
F63.0
sg14
F1902.0
sg15
F0.0
sg16
F0.1773175352224516
sg17
F473.0
sg18
F0.0
sg19
F1.3223215906254964
sg20
F600000.0
sg21
F1865087.0
sg22
F14.0
sg23
F315068.0
sg24
F250100.0
sg25
F1410464.0
sg26
F3275551.0
sg27
F1550019.0
ssS'DERRICK JR. JAMES V'
p372
(dp373
g3
F2181.0
sg4
F0.0
sg5
F51124.0
sg6
F0.0
sg7
F484000.0
sg8
S'james.derrick@enron.com'
p374
sg10
F64.0
sg11
F-1284000.0
sg12
F-1787380.0
sg13
F909.0
sg14
F1401.0
sg15
F0.0
sg16
F0.8936333557781484
sg17
F7482.0
sg18
F0.0
sg19
F16.02943295685332
sg20
F800000.0
sg21
F8831913.0
sg22
F20.0
sg23
F1787380.0
sg24
F492375.0
sg25
F550981.0
sg26
F9382894.0
sg27
F8831913.0
ssS'FREVERT MARK A'
p375
(dp376
g3
F3275.0
sg4
F6426990.0
sg5
F86987.0
sg6
F0.0
sg7
F1617011.0
sg8
S'mark.frevert@enron.com'
p377
sg10
F242.0
sg11
F-3367011.0
sg12
F0.0
sg13
F21.0
sg14
F2979.0
sg15
F2000000.0
sg16
F0.06149428518599881
sg17
F7427621.0
sg18
F0.0
sg19
F0.8475385928904341
sg20
F2000000.0
sg21
F14622185.0
sg22
F6.0
sg23
F4188667.0
sg24
F1060932.0
sg25
F17252530.0
sg26
F31874715.0
sg27
F10433518.0
ssS'PAI LOU L'
p378
(dp379
g3
F0.0
sg4
F0.0
sg5
F32047.0
sg6
F0.0
sg7
F0.0
sg8
S'lou.pai@enron.com'
p380
sg10
F0.0
sg11
F0.0
sg12
F0.0
sg13
F0.0
sg14
F0.0
sg15
F0.0
sg16
F0.08384466458324195
sg17
F1829457.0
sg18
F0.0
sg19
F7.625683433635901
sg20
F1000000.0
sg21
F23817930.0
sg22
F0.0
sg23
F8453763.0
sg24
F261879.0
sg25
F3123383.0
sg26
F26941313.0
sg27
F15364167.0
ssS'BAY FRANKLIN R'
p381
(dp382
g3
F0.0
sg4
F260455.0
sg5
F129142.0
sg6
F0.0
sg7
F0.0
sg8
S'frank.bay@enron.com'
p383
sg10
F0.0
sg11
F-201641.0
sg12
F-82782.0
sg13
F0.0
sg14
F0.0
sg15
F0.0
sg16
F0.2895640428369836
sg17
F69.0
sg18
F0.0
sg19
F0.0761318165123427
sg20
F400000.0
sg21
F63014.0
sg22
F0.0
sg23
F145796.0
sg24
F239671.0
sg25
F827696.0
sg26
F890710.0
sg27
F0.0
ssS'HAYSLETT RODERICK J'
p384
(dp385
g3
F2649.0
sg4
F0.0
sg5
F0.0
sg6
F0.0
sg7
F0.0
sg8
S'rod.hayslett@enron.com'
p386
sg10
F35.0
sg11
F0.0
sg12
F0.0
sg13
F1061.0
sg14
F571.0
sg15
F0.0
sg16
F0.0
sg17
F0.0
sg18
F0.0
sg19
F0.0
sg20
F0.0
sg21
F346663.0
sg22
F38.0
sg23
F346663.0
sg24
F0.0
sg25
F0.0
sg26
F346663.0
sg27
F0.0
ssS'FUGH JOHN L'
p387
(dp388
g3
F0.0
sg4
F50591.0
sg5
F0.0
sg6
F0.0
sg7
F0.0
sg8
g30
sg10
F0.0
sg11
F0.0
sg12
F0.0
sg13
F0.0
sg14
F0.0
sg15
F0.0
sg16
F0.0
sg17
F0.0
sg18
F0.0
sg19
F3.4863513273111817
sg20
F0.0
sg21
F176378.0
sg22
F0.0
sg23
F0.0
sg24
F0.0
sg25
F50591.0
sg26
F226969.0
sg27
F176378.0
ssS'FALLON JAMES B'
p389
(dp390
g3
F1755.0
sg4
F0.0
sg5
F95924.0
sg6
F0.0
sg7
F374347.0
sg8
S'jim.fallon@enron.com'
p391
sg10
F42.0
sg11
F0.0
sg12
F0.0
sg13
F75.0
sg14
F1604.0
sg15
F0.0
sg16
F0.08285087886321722
sg17
F401481.0
sg18
F0.0
sg19
F0.6344350631334424
sg20
F2500000.0
sg21
F2332399.0
sg22
F37.0
sg23
F1392142.0
sg24
F304588.0
sg25
F3676340.0
sg26
F6008739.0
sg27
F940257.0
ssS'KOENIG MARK E'
p392
(dp393
g3
F2374.0
sg4
F0.0
sg5
F127017.0
sg6
F1.0
sg7
F300000.0
sg8
S'mark.koenig@enron.com'
p394
sg10
F53.0
sg11
F0.0
sg12
F0.0
sg13
F61.0
sg14
F2271.0
sg15
F0.0
sg16
F0.19525129124535962
sg17
F150458.0
sg18
F0.0
sg19
F1.2095436560307569
sg20
F700000.0
sg21
F1920055.0
sg22
F15.0
sg23
F1248318.0
sg24
F309946.0
sg25
F1587421.0
sg26
F3507476.0
sg27
F671737.0
ssS'SAVAGE FRANK'
p395
(dp396
g3
F0.0
sg4
F0.0
sg5
F0.0
sg6
F0.0
sg7
F0.0
sg8
g30
sg10
F0.0
sg11
F-121284.0
sg12
F0.0
sg13
F0.0
sg14
F0.0
sg15
F0.0
sg16
F0.0
sg17
F0.0
sg18
F125034.0
sg19
F0.0
sg20
F0.0
sg21
F0.0
sg22
F0.0
sg23
F0.0
sg24
F0.0
sg25
F3750.0
sg26
F3750.0
sg27
F0.0
ssS'IZZO LAWRENCE L'
p397
(dp398
g3
F496.0
sg4
F0.0
sg5
F28093.0
sg6
F0.0
sg7
F312500.0
sg8
S'larry.izzo@enron.com'
p399
sg10
F28.0
sg11
F0.0
sg12
F0.0
sg13
F19.0
sg14
F437.0
sg15
F0.0
sg16
F0.043076466107225916
sg17
F1553729.0
sg18
F0.0
sg19
F2.9399837138486844
sg20
F0.0
sg21
F5819980.0
sg22
F5.0
sg23
F3654808.0
sg24
F85274.0
sg25
F1979596.0
sg26
F7799576.0
sg27
F2165172.0
ssS'TILNEY ELIZABETH A'
p400
(dp401
g3
F460.0
sg4
F0.0
sg5
F0.0
sg6
F0.0
sg7
F275000.0
sg8
S'elizabeth.tilney@enron.com'
p402
sg10
F10.0
sg11
F-575000.0
sg12
F0.0
sg13
F19.0
sg14
F379.0
sg15
F0.0
sg16
F0.6192847646303266
sg17
F152055.0
sg18
F0.0
sg19
F2.924542993993385
sg20
F300000.0
sg21
F1168042.0
sg22
F11.0
sg23
F576792.0
sg24
F247338.0
sg25
F399393.0
sg26
F1567435.0
sg27
F591250.0
ssS'MARTIN AMANDA K'
p403
(dp404
g3
F1522.0
sg4
F85430.0
sg5
F8211.0
sg6
F0.0
sg7
F5145434.0
sg8
S'a..martin@enron.com'
p405
sg10
F8.0
sg11
F0.0
sg12
F0.0
sg13
F230.0
sg14
F477.0
sg15
F0.0
sg16
F0.04157087366076144
sg17
F2818454.0
sg18
F0.0
sg19
F0.24625931483893929
sg20
F0.0
sg21
F2070306.0
sg22
F0.0
sg23
F0.0
sg24
F349487.0
sg25
F8407016.0
sg26
F10477322.0
sg27
F2070306.0
ssS'BUY RICHARD B'
p406
(dp407
g3
F3523.0
sg4
F649584.0
sg5
F0.0
sg6
F0.0
sg7
F769862.0
sg8
S'rick.buy@enron.com'
p408
sg10
F156.0
sg11
F-694862.0
sg12
F0.0
sg13
F1053.0
sg14
F2333.0
sg15
F0.0
sg16
F0.14031740856865596
sg17
F400572.0
sg18
F0.0
sg19
F1.4621840962906174
sg20
F900000.0
sg21
F3444470.0
sg22
F71.0
sg23
F901657.0
sg24
F330546.0
sg25
F2355702.0
sg26
F5800172.0
sg27
F2542813.0
ssS'GRAMM WENDY L'
p409
(dp410
g3
F0.0
sg4
F0.0
sg5
F0.0
sg6
F0.0
sg7
F0.0
sg8
g30
sg10
F0.0
sg11
F0.0
sg12
F0.0
sg13
F0.0
sg14
F0.0
sg15
F0.0
sg16
F0.0
sg17
F0.0
sg18
F119292.0
sg19
F0.0
sg20
F0.0
sg21
F0.0
sg22
F0.0
sg23
F0.0
sg24
F0.0
sg25
F119292.0
sg26
F119292.0
sg27
F0.0
ssS'CAUSEY RICHARD A'
p411
(dp412
g3
F1892.0
sg4
F0.0
sg5
F30674.0
sg6
F1.0
sg7
F350000.0
sg8
S'richard.causey@enron.com'
p413
sg10
F58.0
sg11
F-235000.0
sg12
F0.0
sg13
F49.0
sg14
F1585.0
sg15
F0.0
sg16
F0.22217376460729532
sg17
F307895.0
sg18
F0.0
sg19
F1.338890856922084
sg20
F1000000.0
sg21
F2502063.0
sg22
F12.0
sg23
F2502063.0
sg24
F415189.0
sg25
F1868758.0
sg26
F4370821.0
sg27
F0.0
ssS'TAYLOR MITCHELL S'
p414
(dp415
g3
F533.0
sg4
F227449.0
sg5
F0.0
sg6
F0.0
sg7
F0.0
sg8
S'mitchell.taylor@enron.com'
p416
sg10
F0.0
sg11
F0.0
sg12
F0.0
sg13
F29.0
sg14
F300.0
sg15
F0.0
sg16
F0.24272259607948654
sg17
F0.0
sg18
F0.0
sg19
F3.4274501836339293
sg20
F600000.0
sg21
F3745048.0
sg22
F0.0
sg23
F563798.0
sg24
F265214.0
sg25
F1092663.0
sg26
F4837711.0
sg27
F3181250.0
ssS'DONAHUE JR JEFFREY M'
p417
(dp418
g3
F865.0
sg4
F0.0
sg5
F96268.0
sg6
F0.0
sg7
F0.0
sg8
S'jeff.donahue@enron.com'
p419
sg10
F188.0
sg11
F-300000.0
sg12
F0.0
sg13
F22.0
sg14
F772.0
sg15
F0.0
sg16
F0.3181248287201973
sg17
F891.0
sg18
F0.0
sg19
F1.2343427423038276
sg20
F800000.0
sg21
F1080988.0
sg22
F11.0
sg23
F315068.0
sg24
F278601.0
sg25
F875760.0
sg26
F1956748.0
sg27
F765920.0
ssS'GLISAN JR BEN F'
p420
(dp421
g3
F873.0
sg4
F0.0
sg5
F125978.0
sg6
F1.0
sg7
F71023.0
sg8
S'ben.glisan@enron.com'
p422
sg10
F52.0
sg11
F0.0
sg12
F0.0
sg13
F16.0
sg14
F874.0
sg15
F0.0
sg16
F0.21612705968164342
sg17
F200308.0
sg18
F0.0
sg19
F0.6119278400105637
sg20
F600000.0
sg21
F778546.0
sg22
F6.0
sg23
F393818.0
sg24
F274975.0
sg25
F1272284.0
sg26
F2050830.0
sg27
F384728.0
ss.