(dp0
S'METTS MARK'
p1
(dp2
S'to_messages'
p3
F807.0
sS'deferral_payments'
p4
F0.0
sS'expenses'
p5
F94299.0
sS'poi'
p6
F0.0
sS'long_term_incentive'
p7
F0.0
sS'email_address'
p8
S'mark.metts@enron.com'
p9
sS'from_poi_to_this_person'
p10
F38.0
sS'deferred_income'
p11
F0.0
sS'restricted_stock_deferred'
p12
F0.0
sS'ratio_salary_total_payments'
p13
F0.34448926237513267
sS'shared_receipt_with_poi'
p14
F702.0
sS'loan_advances'
p15
F0.0
sS'from_messages'
p16
F29.0
sS'other'
p17
F1740.0
sS'director_fees'
p18
F0.0
sS'bonus'
p19
F600000.0
sS'total_stock_value'
p20
F585062.0
sS'ratio_to_poi'
p21
F0.0012391573729863693
sS'from_this_person_to_poi'
p22
F1.0
sS'ratio_to_from'
p23
F27.82758620689655
sS'restricted_stock'
p24
F585062.0
sS'ratio_from_poi_share'
p25
F24.20689655172414
sS'salary'
p26
F365788.0
sS'total_payments'
p27
F1061827.0
sS'exercised_stock_options'
p28
F0.0
sS'ratio_from_poi'
p29
F1.3103448275862069
ssS'BAXTER JOHN C'
p30
(dp31
g3
F0.0
sg4
F1295738.0
sg5
F11200.0
sg6
F0.0
sg7
F1586055.0
sg8
S'NaN'
p32
sg10
F0.0
sg11
F-1386055.0
sg12
F0.0
sg13
F0.047406059588491506
sg14
F0.0
sg15
F0.0
sg16
F0.0
sg17
F2660303.0
sg18
F0.0
sg19
F1200000.0
sg20
F10623258.0
sg21
F0.0
sg22
F0.0
sg23
F0.0
sg24
F3942714.0
sg25
F0.0
sg26
F267102.0
sg27
F5634343.0
sg28
F6680544.0
sg29
F0.0
ssS'ELLIOTT STEVEN'
p33
(dp34
g3
F0.0
sg4
F0.0
sg5
F78552.0
sg6
F0.0
sg7
F0.0
sg8
S'steven.elliott@enron.com'
p35
sg10
F0.0
sg11
F-400729.0
sg12
F0.0
sg13
F0.8073727712835046
sg14
F0.0
sg15
F0.0
sg16
F0.0
sg17
F12961.0
sg18
F0.0
sg19
F350000.0
sg20
F6678735.0
sg21
F0.0
sg22
F0.0
sg23
F0.0
sg24
F1788391.0
sg25
F0.0
sg26
F170941.0
sg27
F211725.0
sg28
F4890344.0
sg29
F0.0
ssS'CORDES WILLIAM R'
p36
(dp37
g3
F764.0
sg4
F0.0
sg5
F0.0
sg6
F0.0
sg7
F0.0
sg8
S'bill.cordes@enron.com'
p38
sg10
F10.0
sg11
F0.0
sg12
F0.0
sg13
F0.0
sg14
F58.0
sg15
F0.0
sg16
F12.0
sg17
F0.0
sg18
F0.0
sg19
F0.0
sg20
F1038185.0
sg21
F0.0
sg22
F0.0
sg23
F63.666666666666664
sg24
F386335.0
sg25
F4.833333333333333
sg26
F0.0
sg27
F0.0
sg28
F651850.0
sg29
F0.8333333333333334
ssS'HANNON KEVIN P'
p39
(dp40
g3
F1045.0
sg4
F0.0
sg5
F34039.0
sg6
F1.0
sg7
F1617011.0
sg8
S'kevin.hannon@enron.com'
p41
sg10
F32.0
sg11
F-3117011.0
sg12
F0.0
sg13
F0.8427716310680957
sg14
F1035.0
sg15
F0.0
sg16
F32.0
sg17
F11350.0
sg18
F0.0
sg19
F1500000.0
sg20
F6391065.0
sg21
F0.020095693779904306
sg22
F21.0
sg23
F32.65625
sg24
F853064.0
sg25
F32.34375
sg26
F243293.0
sg27
F288682.0
sg28
F5538001.0
sg29
F1.0
ssS'MORDAUNT KRISTINA M'
p42
(dp43
g3
F0.0
sg4
F0.0
sg5
F35018.0
sg6
F0.0
sg7
F0.0
sg8
S'kristina.mordaunt@enron.com'
p44
sg10
F0.0
sg11
F0.0
sg12
F0.0
sg13
F0.42495409866321304
sg14
F0.0
sg15
F0.0
sg16
F0.0
sg17
F1411.0
sg18
F0.0
sg19
F325000.0
sg20
F208510.0
sg21
F0.0
sg22
F0.0
sg23
F0.0
sg24
F208510.0
sg25
F0.0
sg26
F267093.0
sg27
F628522.0
sg28
F0.0
sg29
F0.0
ssS'MEYER ROCKFORD G'
p45
(dp46
g3
F232.0
sg4
F1848227.0
sg5
F0.0
sg6
F0.0
sg7
F0.0
sg8
S'rockford.meyer@enron.com'
p47
sg10
F0.0
sg11
F0.0
sg12
F0.0
sg13
F0.0
sg14
F22.0
sg15
F0.0
sg16
F28.0
sg17
F0.0
sg18
F0.0
sg19
F0.0
sg20
F955873.0
sg21
F0.0
sg22
F0.0
sg23
F8.285714285714286
sg24
F462384.0
sg25
F0.7857142857142857
sg26
F0.0
sg27
F1848227.0
sg28
F493489.0
sg29
F0.0
ssS'MCMAHON JEFFREY'
p48
(dp49
g3
F2355.0
sg4
F0.0
sg5
F137108.0
sg6
F0.0
sg7
F694862.0
sg8
S'jeffrey.mcmahon@enron.com'
p50
sg10
F58.0
sg11
F0.0
sg12
F0.0
sg13
F0.09035821756873738
sg14
F2228.0
sg15
F0.0
sg16
F48.0
sg17
F297353.0
sg18
F0.0
sg19
F2600000.0
sg20
F1662855.0
sg21
F0.011040339702760084
sg22
F26.0
sg23
F49.0625
sg24
F558801.0
sg25
F46.416666666666664
sg26
F370448.0
sg27
F4099771.0
sg28
F1104054.0
sg29
F1.2083333333333333
ssS'HORTON STANLEY C'
p51
(dp52
g3
F2350.0
sg4
F3131860.0
sg5
F0.0
sg6
F0.0
sg7
F0.0
sg8
S'stanley.horton@enron.com'
p53
sg10
F44.0
sg11
F0.0
sg12
F0.0
sg13
F0.0
sg14
F1074.0
sg15
F0.0
sg16
F1073.0
sg17
F0.0
sg18
F0.0
sg19
F0.0
sg20
F7256648.0
sg21
F0.006382978723404255
sg22
F15.0
sg23
F2.190121155638397
sg24
F2046079.0
sg25
F1.0009319664492078
sg26
F0.0
sg27
F3131860.0
sg28
F5210569.0
sg29
F0.04100652376514446
ssS'PIPER GREGORY F'
p54
(dp55
g3
F1238.0
sg4
F1130036.0
sg5
F43057.0
sg6
F0.0
sg7
F0.0
sg8
S'greg.piper@enron.com'
p56
sg10
F61.0
sg11
F-33333.0
sg12
F-409554.0
sg13
F0.11342524785210191
sg14
F742.0
sg15
F0.0
sg16
F222.0
sg17
F778.0
sg18
F0.0
sg19
F400000.0
sg20
F880290.0
sg21
F0.03877221324717286
sg22
F48.0
sg23
F5.576576576576577
sg24
F409554.0
sg25
F3.3423423423423424
sg26
F197091.0
sg27
F1737629.0
sg28
F880290.0
sg29
F0.2747747747747748
ssS'HUMPHREY GENE E'
p57
(dp58
g3
F128.0
sg4
F2964506.0
sg5
F4994.0
sg6
F0.0
sg7
F0.0
sg8
S'gene.humphrey@enron.com'
p59
sg10
F10.0
sg11
F0.0
sg12
F0.0
sg13
F0.04216598542556925
sg14
F119.0
sg15
F0.0
sg16
F17.0
sg17
F0.0
sg18
F0.0
sg19
F0.0
sg20
F2282768.0
sg21
F0.1328125
sg22
F17.0
sg23
F7.529411764705882
sg24
F0.0
sg25
F7.0
sg26
F130724.0
sg27
F3100224.0
sg28
F2282768.0
sg29
F0.5882352941176471
ssS'UMANOFF ADAM S'
p60
(dp61
g3
F111.0
sg4
F0.0
sg5
F53122.0
sg6
F0.0
sg7
F0.0
sg8
S'adam.umanoff@enron.com'
p62
sg10
F12.0
sg11
F0.0
sg12
F0.0
sg13
F0.2552843485976075
sg14
F41.0
sg15
F0.0
sg16
F18.0
sg17
F0.0
sg18
F0.0
sg19
F788750.0
sg20
F0.0
sg21
F0.0
sg22
F0.0
sg23
F6.166666666666667
sg24
F0.0
sg25
F2.2777777777777777
sg26
F288589.0
sg27
F1130461.0
sg28
F0.0
sg29
F0.6666666666666666
ssS'BLACHMAN JEREMY M'
p63
(dp64
g3
F2475.0
sg4
F0.0
sg5
F84208.0
sg6
F0.0
sg7
F831809.0
sg8
S'jeremy.blachman@enron.com'
p65
sg10
F25.0
sg11
F0.0
sg12
F0.0
sg13
F0.12335799209364538
sg14
F2326.0
sg15
F0.0
sg16
F14.0
sg17
F272.0
sg18
F0.0
sg19
F850000.0
sg20
F954354.0
sg21
F0.0008080808080808081
sg22
F2.0
sg23
F176.78571428571428
sg24
F189041.0
sg25
F166.14285714285714
sg26
F248546.0
sg27
F2014835.0
sg28
F765313.0
sg29
F1.7857142857142858
ssS'SUNDE MARTIN'
p66
(dp67
g3
F2647.0
sg4
F0.0
sg5
F0.0
sg6
F0.0
sg7
F476451.0
sg8
S'marty.sunde@enron.com'
p68
sg10
F37.0
sg11
F0.0
sg12
F0.0
sg13
F0.16665124115001434
sg14
F2565.0
sg15
F0.0
sg16
F38.0
sg17
F111122.0
sg18
F0.0
sg19
F700000.0
sg20
F698920.0
sg21
F0.004911220249338874
sg22
F13.0
sg23
F69.65789473684211
sg24
F698920.0
sg25
F67.5
sg26
F257486.0
sg27
F1545059.0
sg28
F0.0
sg29
F0.9736842105263158
ssS'GIBBS DANA R'
p69
(dp70
g3
F169.0
sg4
F504610.0
sg5
F0.0
sg6
F0.0
sg7
F461912.0
sg8
S'dana.gibbs@enron.com'
p71
sg10
F0.0
sg11
F0.0
sg12
F0.0
sg13
F0.0
sg14
F23.0
sg15
F0.0
sg16
F12.0
sg17
F0.0
sg18
F0.0
sg19
F0.0
sg20
F2218275.0
sg21
F0.0
sg22
F0.0
sg23
F14.083333333333334
sg24
F0.0
sg25
F1.9166666666666667
sg26
F0.0
sg27
F966522.0
sg28
F2218275.0
sg29
F0.0
ssS'LOWRY CHARLES P'
p72
(dp73
g3
F0.0
sg4
F0.0
sg5
F0.0
sg6
F0.0
sg7
F0.0
sg8
g32
sg10
F0.0
sg11
F0.0
sg12
F-153686.0
sg13
F0.0
sg14
F0.0
sg15
F0.0
sg16
F0.0
sg17
F0.0
sg18
F0.0
sg19
F0.0
sg20
F372205.0
sg21
F0.0
sg22
F0.0
sg23
F0.0
sg24
F153686.0
sg25
F0.0
sg26
F0.0
sg27
F0.0
sg28
F372205.0
sg29
F0.0
ssS'COLWELL WESLEY'
p74
(dp75
g3
F1758.0
sg4
F27610.0
sg5
F16514.0
sg6
F1.0
sg7
F0.0
sg8
S'wes.colwell@enron.com'
p76
sg10
F240.0
sg11
F-144062.0
sg12
F0.0
sg13
F0.19360765031428986
sg14
F1132.0
sg15
F0.0
sg16
F40.0
sg17
F101740.0
sg18
F0.0
sg19
F1200000.0
sg20
F698242.0
sg21
F0.006257110352673493
sg22
F11.0
sg23
F43.95
sg24
F698242.0
sg25
F28.3
sg26
F288542.0
sg27
F1490344.0
sg28
F0.0
sg29
F6.0
ssS'MULLER MARK S'
p77
(dp78
g3
F136.0
sg4
F842924.0
sg5
F0.0
sg6
F0.0
sg7
F1725545.0
sg8
S's..muller@enron.com'
p79
sg10
F12.0
sg11
F-719000.0
sg12
F0.0
sg13
F0.07859103642331366
sg14
F114.0
sg15
F0.0
sg16
F16.0
sg17
F947.0
sg18
F0.0
sg19
F1100000.0
sg20
F1416848.0
sg21
F0.0
sg22
F0.0
sg23
F8.5
sg24
F360528.0
sg25
F7.125
sg26
F251654.0
sg27
F3202070.0
sg28
F1056320.0
sg29
F0.75
ssS'JACKSON CHARLENE R'
p80
(dp81
g3
F258.0
sg4
F0.0
sg5
F10181.0
sg6
F0.0
sg7
F0.0
sg8
S'charlene.jackson@enron.com'
p82
sg10
F25.0
sg11
F0.0
sg12
F0.0
sg13
F0.5235334032447104
sg14
F117.0
sg15
F0.0
sg16
F56.0
sg17
F2435.0
sg18
F0.0
sg19
F250000.0
sg20
F725735.0
sg21
F0.07364341085271318
sg22
F19.0
sg23
F4.607142857142857
sg24
F540672.0
sg25
F2.0892857142857144
sg26
F288558.0
sg27
F551174.0
sg28
F185063.0
sg29
F0.44642857142857145
ssS'WESTFAHL RICHARD K'
p83
(dp84
g3
F0.0
sg4
F0.0
sg5
F51870.0
sg6
F0.0
sg7
F256191.0
sg8
S'dick.westfahl@enron.com'
p85
sg10
F0.0
sg11
F-10800.0
sg12
F0.0
sg13
F0.08363872542266133
sg14
F0.0
sg15
F0.0
sg16
F0.0
sg17
F401130.0
sg18
F0.0
sg19
F0.0
sg20
F384930.0
sg21
F0.0
sg22
F0.0
sg23
F0.0
sg24
F384930.0
sg25
F0.0
sg26
F63744.0
sg27
F762135.0
sg28
F0.0
sg29
F0.0
ssS'WALTERS GARETH W'
p86
(dp87
g3
F0.0
sg4
F53625.0
sg5
F33785.0
sg6
F0.0
sg7
F0.0
sg8
g32
sg10
F0.0
sg11
F0.0
sg12
F0.0
sg13
F0.0
sg14
F0.0
sg15
F0.0
sg16
F0.0
sg17
F0.0
sg18
F0.0
sg19
F0.0
sg20
F1030329.0
sg21
F0.0
sg22
F0.0
sg23
F0.0
sg24
F0.0
sg25
F0.0
sg26
F0.0
sg27
F87410.0
sg28
F1030329.0
sg29
F0.0
ssS'WALLS JR ROBERT H'
p88
(dp89
g3
F671.0
sg4
F0.0
sg5
F50936.0
sg6
F0.0
sg7
F540751.0
sg8
S'rob.walls@enron.com'
p90
sg10
F17.0
sg11
F0.0
sg12
F0.0
sg13
F0.1985184402761872
sg14
F215.0
sg15
F0.0
sg16
F146.0
sg17
F2.0
sg18
F0.0
sg19
F850000.0
sg20
F5898997.0
sg21
F0.0
sg22
F0.0
sg23
F4.595890410958904
sg24
F1552453.0
sg25
F1.4726027397260273
sg26
F357091.0
sg27
F1798780.0
sg28
F4346544.0
sg29
F0.11643835616438356
ssS'KITCHEN LOUISE'
p91
(dp92
g3
F8305.0
sg4
F0.0
sg5
F5774.0
sg6
F0.0
sg7
F0.0
sg8
S'louise.kitchen@enron.com'
p93
sg10
F251.0
sg11
F0.0
sg12
F0.0
sg13
F0.07819964674439903
sg14
F3669.0
sg15
F0.0
sg16
F1728.0
sg17
F93925.0
sg18
F0.0
sg19
F3100000.0
sg20
F547143.0
sg21
F0.023359422034918725
sg22
F194.0
sg23
F4.8061342592592595
sg24
F466101.0
sg25
F2.123263888888889
sg26
F271442.0
sg27
F3471141.0
sg28
F81042.0
sg29
F0.14525462962962962
ssS'CHAN RONNIE'
p94
(dp95
g3
F0.0
sg4
F0.0
sg5
F0.0
sg6
F0.0
sg7
F0.0
sg8
g32
sg10
F0.0
sg11
F-98784.0
sg12
F-32460.0
sg13
F0.0
sg14
F0.0
sg15
F0.0
sg16
F0.0
sg17
F0.0
sg18
F98784.0
sg19
F0.0
sg20
F0.0
sg21
F0.0
sg22
F0.0
sg23
F0.0
sg24
F32460.0
sg25
F0.0
sg26
F0.0
sg27
F0.0
sg28
F0.0
sg29
F0.0
ssS'BELFER ROBERT'
p96
(dp97
g3
F0.0
sg4
F-102500.0
sg5
F0.0
sg6
F0.0
sg7
F0.0
sg8
g32
sg10
F0.0
sg11
F0.0
sg12
F44093.0
sg13
F0.0
sg14
F0.0
sg15
F0.0
sg16
F0.0
sg17
F0.0
sg18
F3285.0
sg19
F0.0
sg20
F-44093.0
sg21
F0.0
sg22
F0.0
sg23
F0.0
sg24
F0.0
sg25
F0.0
sg26
F0.0
sg27
F102500.0
sg28
F3285.0
sg29
F0.0
ssS'SHANKMAN JEFFREY A'
p98
(dp99
g3
F3221.0
sg4
F0.0
sg5
F178979.0
sg6
F0.0
sg7
F554422.0
sg8
S'jeffrey.shankman@enron.com'
p100
sg10
F94.0
sg11
F0.0
sg12
F0.0
sg13
F0.10007891527369252
sg14
F1730.0
sg15
F0.0
sg16
F2681.0
sg17
F1191.0
sg18
F0.0
sg19
F2000000.0
sg20
F2072035.0
sg21
F0.025768394908413535
sg22
F83.0
sg23
F1.2014173815740394
sg24
F630137.0
sg25
F0.6452816113390526
sg26
F304110.0
sg27
F3038702.0
sg28
F1441898.0
sg29
F0.0350615441999254
ssS'WODRASKA JOHN'
p101
(dp102
g3
F0.0
sg4
F0.0
sg5
F0.0
sg6
F0.0
sg7
F0.0
sg8
S'john.wodraska@enron.com'
p103
sg10
F0.0
sg11
F0.0
sg12
F0.0
sg13
F0.0
sg14
F0.0
sg15
F0.0
sg16
F0.0
sg17
F189583.0
sg18
F0.0
sg19
F0.0
sg20
F0.0
sg21
F0.0
sg22
F0.0
sg23
F0.0
sg24
F0.0
sg25
F0.0
sg26
F0.0
sg27
F189583.0
sg28
F0.0
sg29
F0.0
ssS'BERGSIEKER RICHARD P'
p104
(dp105
g3
F383.0
sg4
F0.0
sg5
F59175.0
sg6
F0.0
sg7
F180250.0
sg8
S'rick.bergsieker@enron.com'
p106
sg10
F4.0
sg11
F-485813.0
sg12
F0.0
sg13
F0.3036632463440252
sg14
F233.0
sg15
F0.0
sg16
F59.0
sg17
F427316.0
sg18
F0.0
sg19
F250000.0
sg20
F659249.0
sg21
F0.0
sg22
F0.0
sg23
F6.491525423728813
sg24
F659249.0
sg25
F3.9491525423728815
sg26
F187922.0
sg27
F618850.0
sg28
F0.0
sg29
F0.06779661016949153
ssS'URQUHART JOHN A'
p107
(dp108
g3
F0.0
sg4
F0.0
sg5
F228656.0
sg6
F0.0
sg7
F0.0
sg8
g32
sg10
F0.0
sg11
F-36666.0
sg12
F0.0
sg13
F0.0
sg14
F0.0
sg15
F0.0
sg16
F0.0
sg17
F0.0
sg18
F36666.0
sg19
F0.0
sg20
F0.0
sg21
F0.0
sg22
F0.0
sg23
F0.0
sg24
F0.0
sg25
F0.0
sg26
F0.0
sg27
F228656.0
sg28
F0.0
sg29
F0.0
ssS'BIBI PHILIPPE A'
p109
(dp110
g3
F1607.0
sg4
F0.0
sg5
F38559.0
sg6
F0.0
sg7
F369721.0
sg8
S'philippe.bibi@enron.com'
p111
sg10
F23.0
sg11
F0.0
sg12
F0.0
sg13
F0.10432981554439774
sg14
F1336.0
sg15
F0.0
sg16
F40.0
sg17
F425688.0
sg18
F0.0
sg19
F1000000.0
sg20
F1843816.0
sg21
F0.004978220286247666
sg22
F8.0
sg23
F40.175
sg24
F378082.0
sg25
F33.4
sg26
F213625.0
sg27
F2047593.0
sg28
F1465734.0
sg29
F0.575
ssS'PIRO JIM'
p112
(dp113
g3
F58.0
sg4
F0.0
sg5
F0.0
sg6
F0.0
sg7
F0.0
sg8
S'jim.piro@enron.com'
p114
sg10
F0.0
sg11
F0.0
sg12
F0.0
sg13
F0.0
sg14
F3.0
sg15
F0.0
sg16
F16.0
sg17
F0.0
sg18
F0.0
sg19
F0.0
sg20
F47304.0
sg21
F0.017241379310344827
sg22
F1.0
sg23
F3.625
sg24
F47304.0
sg25
F0.1875
sg26
F0.0
sg27
F0.0
sg28
F0.0
sg29
F0.0
ssS'RIEKER PAULA H'
p115
(dp116
g3
F1328.0
sg4
F214678.0
sg5
F33271.0
sg6
F1.0
sg7
F0.0
sg8
S'paula.rieker@enron.com'
p117
sg10
F35.0
sg11
F-100000.0
sg12
F0.0
sg13
F0.22673187153125285
sg14
F1258.0
sg15
F0.0
sg16
F82.0
sg17
F1950.0
sg18
F0.0
sg19
F700000.0
sg20
F1918887.0
sg21
F0.03614457831325301
sg22
F48.0
sg23
F16.195121951219512
sg24
F283649.0
sg25
F15.341463414634147
sg26
F249201.0
sg27
F1099100.0
sg28
F1635238.0
sg29
F0.4268292682926829
ssS'WHALEY DAVID A'
p118
(dp119
g3
F0.0
sg4
F0.0
sg5
F0.0
sg6
F0.0
sg7
F0.0
sg8
g32
sg10
F0.0
sg11
F0.0
sg12
F0.0
sg13
F0.0
sg14
F0.0
sg15
F0.0
sg16
F0.0
sg17
F0.0
sg18
F0.0
sg19
F0.0
sg20
F98718.0
sg21
F0.0
sg22
F0.0
sg23
F0.0
sg24
F0.0
sg25
F0.0
sg26
F0.0
sg27
F0.0
sg28
F98718.0
sg29
F0.0
ssS'BECK SALLY W'
p120
(dp121
g3
F7315.0
sg4
F0.0
sg5
F37172.0
sg6
F0.0
sg7
F0.0
sg8
S'sally.beck@enron.com'
p122
sg10
F144.0
sg11
F0.0
sg12
F0.0
sg13
F0.23871389830228631
sg14
F2639.0
sg15
F0.0
sg16
F4343.0
sg17
F566.0
sg18
F0.0
sg19
F700000.0
sg20
F126027.0
sg21
F0.052768284347231714
sg22
F386.0
sg23
F1.6843195947501728
sg24
F126027.0
sg25
F0.6076444853787705
sg26
F231330.0
sg27
F969068.0
sg28
F0.0
sg29
F0.033156804052498275
ssS'HAUG DAVID L'
p123
(dp124
g3
F573.0
sg4
F0.0
sg5
F475.0
sg6
F0.0
sg7
F0.0
sg8
S'david.haug@enron.com'
p125
sg10
F4.0
sg11
F0.0
sg12
F0.0
sg13
F0.0
sg14
F471.0
sg15
F0.0
sg16
F19.0
sg17
F0.0
sg18
F0.0
sg19
F0.0
sg20
F2217299.0
sg21
F0.012216404886561954
sg22
F7.0
sg23
F30.157894736842106
sg24
F2217299.0
sg25
F24.789473684210527
sg26
F0.0
sg27
F475.0
sg28
F0.0
sg29
F0.21052631578947367
ssS'ECHOLS JOHN B'
p126
(dp127
g3
F0.0
sg4
F0.0
sg5
F21530.0
sg6
F0.0
sg7
F2234774.0
sg8
S'john.echols@enron.com'
p128
sg10
F0.0
sg11
F0.0
sg12
F0.0
sg13
F0.06769058998842635
sg14
F0.0
sg15
F0.0
sg16
F0.0
sg17
F53775.0
sg18
F0.0
sg19
F200000.0
sg20
F1008941.0
sg21
F0.0
sg22
F0.0
sg23
F0.0
sg24
F407503.0
sg25
F0.0
sg26
F182245.0
sg27
F2692324.0
sg28
F601438.0
sg29
F0.0
ssS'MENDELSOHN JOHN'
p129
(dp130
g3
F0.0
sg4
F0.0
sg5
F148.0
sg6
F0.0
sg7
F0.0
sg8
g32
sg10
F0.0
sg11
F-103750.0
sg12
F0.0
sg13
F0.0
sg14
F0.0
sg15
F0.0
sg16
F0.0
sg17
F0.0
sg18
F103750.0
sg19
F0.0
sg20
F0.0
sg21
F0.0
sg22
F0.0
sg23
F0.0
sg24
F0.0
sg25
F0.0
sg26
F0.0
sg27
F148.0
sg28
F0.0
sg29
F0.0
ssS'HICKERSON GARY J'
p131
(dp132
g3
F1320.0
sg4
F0.0
sg5
F98849.0
sg6
F0.0
sg7
F69223.0
sg8
S'gary.hickerson@enron.com'
p133
sg10
F40.0
sg11
F0.0
sg12
F0.0
sg13
F0.10173331104488624
sg14
F900.0
sg15
F0.0
sg16
F27.0
sg17
F1936.0
sg18
F0.0
sg19
F1700000.0
sg20
F441096.0
sg21
F0.0007575757575757576
sg22
F1.0
sg23
F48.888888888888886
sg24
F441096.0
sg25
F33.333333333333336
sg26
F211788.0
sg27
F2081796.0
sg28
F0.0
sg29
F1.4814814814814814
ssS'CLINE KENNETH W'
p134
(dp135
g3
F0.0
sg4
F0.0
sg5
F0.0
sg6
F0.0
sg7
F0.0
sg8
g32
sg10
F0.0
sg11
F0.0
sg12
F-472568.0
sg13
F0.0
sg14
F0.0
sg15
F0.0
sg16
F0.0
sg17
F0.0
sg18
F0.0
sg19
F0.0
sg20
F189518.0
sg21
F0.0
sg22
F0.0
sg23
F0.0
sg24
F662086.0
sg25
F0.0
sg26
F0.0
sg27
F0.0
sg28
F0.0
sg29
F0.0
ssS'LEWIS RICHARD'
p136
(dp137
g3
F952.0
sg4
F0.0
sg5
F0.0
sg6
F0.0
sg7
F0.0
sg8
S'richard.lewis@enron.com'
p138
sg10
F10.0
sg11
F0.0
sg12
F0.0
sg13
F0.0
sg14
F739.0
sg15
F0.0
sg16
F26.0
sg17
F0.0
sg18
F0.0
sg19
F0.0
sg20
F850477.0
sg21
F0.0
sg22
F0.0
sg23
F36.61538461538461
sg24
F0.0
sg25
F28.423076923076923
sg26
F0.0
sg27
F0.0
sg28
F850477.0
sg29
F0.38461538461538464
ssS'HAYES ROBERT E'
p139
(dp140
g3
F504.0
sg4
F7961.0
sg5
F0.0
sg6
F0.0
sg7
F0.0
sg8
S'robert.hayes@enron.com'
p141
sg10
F16.0
sg11
F0.0
sg12
F0.0
sg13
F0.0
sg14
F50.0
sg15
F0.0
sg16
F12.0
sg17
F0.0
sg18
F0.0
sg19
F0.0
sg20
F151418.0
sg21
F0.0
sg22
F0.0
sg23
F42.0
sg24
F151418.0
sg25
F4.166666666666667
sg26
F0.0
sg27
F7961.0
sg28
F0.0
sg29
F1.3333333333333333
ssS'KOPPER MICHAEL J'
p142
(dp143
g3
F0.0
sg4
F0.0
sg5
F118134.0
sg6
F1.0
sg7
F602671.0
sg8
S'michael.kopper@enron.com'
p144
sg10
F0.0
sg11
F0.0
sg12
F0.0
sg13
F0.08456004873686766
sg14
F0.0
sg15
F0.0
sg16
F0.0
sg17
F907502.0
sg18
F0.0
sg19
F800000.0
sg20
F985032.0
sg21
F0.0
sg22
F0.0
sg23
F0.0
sg24
F985032.0
sg25
F0.0
sg26
F224305.0
sg27
F2652612.0
sg28
F0.0
sg29
F0.0
ssS'LEFF DANIEL P'
p145
(dp146
g3
F2822.0
sg4
F0.0
sg5
F0.0
sg6
F0.0
sg7
F1387399.0
sg8
S'dan.leff@enron.com'
p147
sg10
F67.0
sg11
F0.0
sg12
F0.0
sg13
F0.10274871369867744
sg14
F2672.0
sg15
F0.0
sg16
F63.0
sg17
F3083.0
sg18
F0.0
sg19
F1000000.0
sg20
F360528.0
sg21
F0.004961020552799433
sg22
F14.0
sg23
F44.79365079365079
sg24
F360528.0
sg25
F42.41269841269841
sg26
F273746.0
sg27
F2664228.0
sg28
F0.0
sg29
F1.0634920634920635
ssS'LAVORATO JOHN J'
p148
(dp149
g3
F7259.0
sg4
F0.0
sg5
F49537.0
sg6
F0.0
sg7
F2035380.0
sg8
S'john.lavorato@enron.com'
p150
sg10
F528.0
sg11
F0.0
sg12
F0.0
sg13
F0.03254324841831629
sg14
F3962.0
sg15
F0.0
sg16
F2585.0
sg17
F1552.0
sg18
F0.0
sg19
F8000000.0
sg20
F5167144.0
sg21
F0.05661936905909905
sg22
F411.0
sg23
F2.8081237911025143
sg24
F1008149.0
sg25
F1.532688588007737
sg26
F339288.0
sg27
F10425757.0
sg28
F4158995.0
sg29
F0.20425531914893616
ssS'BERBERIAN DAVID'
p151
(dp152
g3
F0.0
sg4
F0.0
sg5
F11892.0
sg6
F0.0
sg7
F0.0
sg8
S'david.berberian@enron.com'
p153
sg10
F0.0
sg11
F0.0
sg12
F0.0
sg13
F0.9479503138212663
sg14
F0.0
sg15
F0.0
sg16
F0.0
sg17
F0.0
sg18
F0.0
sg19
F0.0
sg20
F2493616.0
sg21
F0.0
sg22
F0.0
sg23
F0.0
sg24
F869220.0
sg25
F0.0
sg26
F216582.0
sg27
F228474.0
sg28
F1624396.0
sg29
F0.0
ssS'DETMERING TIMOTHY J'
p154
(dp155
g3
F0.0
sg4
F875307.0
sg5
F52255.0
sg6
F0.0
sg7
F415657.0
sg8
S'timothy.detmering@enron.com'
p156
sg10
F0.0
sg11
F-775241.0
sg12
F-315068.0
sg13
F0.17474927007935526
sg14
F0.0
sg15
F0.0
sg16
F0.0
sg17
F1105.0
sg18
F0.0
sg19
F425000.0
sg20
F2027865.0
sg21
F0.0
sg22
F0.0
sg23
F0.0
sg24
F315068.0
sg25
F0.0
sg26
F210500.0
sg27
F1204583.0
sg28
F2027865.0
sg29
F0.0
ssS'WAKEHAM JOHN'
p157
(dp158
g3
F0.0
sg4
F0.0
sg5
F103773.0
sg6
F0.0
sg7
F0.0
sg8
g32
sg10
F0.0
sg11
F0.0
sg12
F0.0
sg13
F0.0
sg14
F0.0
sg15
F0.0
sg16
F0.0
sg17
F0.0
sg18
F109298.0
sg19
F0.0
sg20
F0.0
sg21
F0.0
sg22
F0.0
sg23
F0.0
sg24
F0.0
sg25
F0.0
sg26
F0.0
sg27
F213071.0
sg28
F0.0
sg29
F0.0
ssS'POWERS WILLIAM'
p159
(dp160
g3
F653.0
sg4
F0.0
sg5
F0.0
sg6
F0.0
sg7
F0.0
sg8
S'ken.powers@enron.com'
p161
sg10
F0.0
sg11
F-17500.0
sg12
F0.0
sg13
F0.0
sg14
F12.0
sg15
F0.0
sg16
F26.0
sg17
F0.0
sg18
F17500.0
sg19
F0.0
sg20
F0.0
sg21
F0.0
sg22
F0.0
sg23
F25.115384615384617
sg24
F0.0
sg25
F0.46153846153846156
sg26
F0.0
sg27
F0.0
sg28
F0.0
sg29
F0.0
ssS'GOLD JOSEPH'
p162
(dp163
g3
F0.0
sg4
F0.0
sg5
F0.0
sg6
F0.0
sg7
F304805.0
sg8
S'joe.gold@enron.com'
p164
sg10
F0.0
sg11
F0.0
sg12
F0.0
sg13
F0.12709987503336093
sg14
F0.0
sg15
F0.0
sg16
F0.0
sg17
F819288.0
sg18
F0.0
sg19
F750000.0
sg20
F877611.0
sg21
F0.0
sg22
F0.0
sg23
F0.0
sg24
F441096.0
sg25
F0.0
sg26
F272880.0
sg27
F2146973.0
sg28
F436515.0
sg29
F0.0
ssS'BANNANTINE JAMES M'
p165
(dp166
g3
F566.0
sg4
F0.0
sg5
F56301.0
sg6
F0.0
sg7
F0.0
sg8
S'james.bannantine@enron.com'
p167
sg10
F39.0
sg11
F-5104.0
sg12
F-560222.0
sg13
F0.0005206303884426602
sg14
F465.0
sg15
F0.0
sg16
F29.0
sg17
F864523.0
sg18
F0.0
sg19
F0.0
sg20
F5243487.0
sg21
F0.0
sg22
F0.0
sg23
F19.517241379310345
sg24
F1757552.0
sg25
F16.03448275862069
sg26
F477.0
sg27
F916197.0
sg28
F4046157.0
sg29
F1.3448275862068966
ssS'DUNCAN JOHN H'
p168
(dp169
g3
F0.0
sg4
F0.0
sg5
F0.0
sg6
F0.0
sg7
F0.0
sg8
g32
sg10
F0.0
sg11
F-25000.0
sg12
F0.0
sg13
F0.0
sg14
F0.0
sg15
F0.0
sg16
F0.0
sg17
F0.0
sg18
F102492.0
sg19
F0.0
sg20
F371750.0
sg21
F0.0
sg22
F0.0
sg23
F0.0
sg24
F0.0
sg25
F0.0
sg26
F0.0
sg27
F77492.0
sg28
F371750.0
sg29
F0.0
ssS'SHAPIRO RICHARD S'
p170
(dp171
g3
F15149.0
sg4
F0.0
sg5
F137767.0
sg6
F0.0
sg7
F0.0
sg8
S'richard.shapiro@enron.com'
p172
sg10
F74.0
sg11
F0.0
sg12
F0.0
sg13
F0.25443384130082036
sg14
F4527.0
sg15
F0.0
sg16
F1215.0
sg17
F705.0
sg18
F0.0
sg19
F650000.0
sg20
F987001.0
sg21
F0.004290712258234867
sg22
F65.0
sg23
F12.468312757201646
sg24
F379164.0
sg25
F3.725925925925926
sg26
F269076.0
sg27
F1057548.0
sg28
F607837.0
sg29
F0.060905349794238686
ssS'SHERRIFF JOHN R'
p173
(dp174
g3
F3187.0
sg4
F0.0
sg5
F0.0
sg6
F0.0
sg7
F554422.0
sg8
S'john.sherriff@enron.com'
p175
sg10
F28.0
sg11
F0.0
sg12
F0.0
sg13
F0.09890233584629565
sg14
F2103.0
sg15
F0.0
sg16
F92.0
sg17
F1852186.0
sg18
F0.0
sg19
F1500000.0
sg20
F3128982.0
sg21
F0.0072168183244430495
sg22
F23.0
sg23
F34.641304347826086
sg24
F1293424.0
sg25
F22.858695652173914
sg26
F428780.0
sg27
F4335388.0
sg28
F1835558.0
sg29
F0.30434782608695654
ssS'SHELBY REX'
p176
(dp177
g3
F225.0
sg4
F0.0
sg5
F22884.0
sg6
F1.0
sg7
F0.0
sg8
S'rex.shelby@enron.com'
p178
sg10
F13.0
sg11
F-4167.0
sg12
F0.0
sg13
F0.10571664541627888
sg14
F91.0
sg15
F0.0
sg16
F39.0
sg17
F1573324.0
sg18
F0.0
sg19
F200000.0
sg20
F2493616.0
sg21
F0.06222222222222222
sg22
F14.0
sg23
F5.769230769230769
sg24
F869220.0
sg25
F2.3333333333333335
sg26
F211844.0
sg27
F2003885.0
sg28
F1624396.0
sg29
F0.3333333333333333
ssS'LEMAISTRE CHARLES'
p179
(dp180
g3
F0.0
sg4
F0.0
sg5
F0.0
sg6
F0.0
sg7
F0.0
sg8
g32
sg10
F0.0
sg11
F-25000.0
sg12
F0.0
sg13
F0.0
sg14
F0.0
sg15
F0.0
sg16
F0.0
sg17
F0.0
sg18
F112492.0
sg19
F0.0
sg20
F412878.0
sg21
F0.0
sg22
F0.0
sg23
F0.0
sg24
F0.0
sg25
F0.0
sg26
F0.0
sg27
F87492.0
sg28
F412878.0
sg29
F0.0
ssS'DEFFNER JOSEPH M'
p181
(dp182
g3
F714.0
sg4
F0.0
sg5
F41626.0
sg6
F0.0
sg7
F335349.0
sg8
S'joseph.deffner@enron.com'
p183
sg10
F115.0
sg11
F0.0
sg12
F0.0
sg13
F0.17053834487928257
sg14
F552.0
sg15
F0.0
sg16
F74.0
sg17
F25553.0
sg18
F0.0
sg19
F600000.0
sg20
F159211.0
sg21
F0.0056022408963585435
sg22
F4.0
sg23
F9.64864864864865
sg24
F141833.0
sg25
F7.45945945945946
sg26
F206121.0
sg27
F1208649.0
sg28
F17378.0
sg29
F1.554054054054054
ssS'KISHKILL JOSEPH G'
p184
(dp185
g3
F0.0
sg4
F0.0
sg5
F116335.0
sg6
F0.0
sg7
F0.0
sg8
S'joe.kishkill@enron.com'
p186
sg10
F0.0
sg11
F-51042.0
sg12
F0.0
sg13
F0.2471939122934447
sg14
F0.0
sg15
F0.0
sg16
F0.0
sg17
F465357.0
sg18
F0.0
sg19
F0.0
sg20
F1034346.0
sg21
F0.0
sg22
F0.0
sg23
F0.0
sg24
F1034346.0
sg25
F0.0
sg26
F174246.0
sg27
F704896.0
sg28
F0.0
sg29
F0.0
ssS'WHALLEY LAWRENCE G'
p187
(dp188
g3
F6019.0
sg4
F0.0
sg5
F57838.0
sg6
F0.0
sg7
F808346.0
sg8
S'greg.whalley@enron.com'
p189
sg10
F186.0
sg11
F0.0
sg12
F0.0
sg13
F0.10910869608904103
sg14
F3920.0
sg15
F0.0
sg16
F556.0
sg17
F301026.0
sg18
F0.0
sg19
F3000000.0
sg20
F6079137.0
sg21
F0.003987373317826882
sg22
F24.0
sg23
F10.825539568345324
sg24
F2796177.0
sg25
F7.0503597122302155
sg26
F510364.0
sg27
F4677574.0
sg28
F3282960.0
sg29
F0.3345323741007194
ssS'MCCARTY DANNY J'
p190
(dp191
g3
F1433.0
sg4
F0.0
sg5
F0.0
sg6
F0.0
sg7
F0.0
sg8
S'danny.mccarty@enron.com'
p192
sg10
F25.0
sg11
F0.0
sg12
F0.0
sg13
F0.0
sg14
F508.0
sg15
F0.0
sg16
F215.0
sg17
F0.0
sg18
F0.0
sg19
F0.0
sg20
F758931.0
sg21
F0.0013956734124214933
sg22
F2.0
sg23
F6.665116279069768
sg24
F94556.0
sg25
F2.3627906976744186
sg26
F0.0
sg27
F0.0
sg28
F664375.0
sg29
F0.11627906976744186
ssS'MCCONNELL MICHAEL S'
p193
(dp194
g3
F3329.0
sg4
F0.0
sg5
F81364.0
sg6
F0.0
sg7
F554422.0
sg8
S'mike.mcconnell@enron.com'
p195
sg10
F92.0
sg11
F0.0
sg12
F0.0
sg13
F0.17371478715729402
sg14
F2189.0
sg15
F0.0
sg16
F2742.0
sg17
F540.0
sg18
F0.0
sg19
F1100000.0
sg20
F3101279.0
sg21
F0.058275758486031844
sg22
F194.0
sg23
F1.2140773158278628
sg24
F1478269.0
sg25
F0.7983223924142961
sg26
F365038.0
sg27
F2101364.0
sg28
F1623010.0
sg29
F0.03355215171407731
ssS'DELAINEY DAVID W'
p196
(dp197
g3
F3093.0
sg4
F0.0
sg5
F86174.0
sg6
F1.0
sg7
F1294981.0
sg8
S'david.delainey@enron.com'
p198
sg10
F66.0
sg11
F0.0
sg12
F0.0
sg13
F0.07690914386942319
sg14
F2097.0
sg15
F0.0
sg16
F3069.0
sg17
F1661.0
sg18
F0.0
sg19
F3000000.0
sg20
F3614261.0
sg21
F0.19689621726479145
sg22
F609.0
sg23
F1.007820136852395
sg24
F1323148.0
sg25
F0.6832844574780058
sg26
F365163.0
sg27
F4747979.0
sg28
F2291113.0
sg29
F0.021505376344086023
ssS'SULLIVAN-SHAKLOVITZ COLLEEN'
p199
(dp200
g3
F0.0
sg4
F181993.0
sg5
F0.0
sg6
F0.0
sg7
F554422.0
sg8
g32
sg10
F0.0
sg11
F0.0
sg12
F0.0
sg13
F0.162883897229816
sg14
F0.0
sg15
F0.0
sg16
F0.0
sg17
F162.0
sg18
F0.0
sg19
F100000.0
sg20
F1362375.0
sg21
F0.0
sg22
F0.0
sg23
F0.0
sg24
F0.0
sg25
F0.0
sg26
F162779.0
sg27
F999356.0
sg28
F1362375.0
sg29
F0.0
ssS'WROBEL BRUCE'
p201
(dp202
g3
F0.0
sg4
F0.0
sg5
F0.0
sg6
F0.0
sg7
F0.0
sg8
g32
sg10
F0.0
sg11
F0.0
sg12
F0.0
sg13
F0.0
sg14
F0.0
sg15
F0.0
sg16
F0.0
sg17
F0.0
sg18
F0.0
sg19
F0.0
sg20
F139130.0
sg21
F0.0
sg22
F0.0
sg23
F0.0
sg24
F0.0
sg25
F0.0
sg26
F0.0
sg27
F0.0
sg28
F139130.0
sg29
F0.0
ssS'LINDHOLM TOD A'
p203
(dp204
g3
F0.0
sg4
F204075.0
sg5
F57727.0
sg6
F0.0
sg7
F175000.0
sg8
S'tod.lindholm@enron.com'
p205
sg10
F0.0
sg11
F0.0
sg12
F0.0
sg13
F0.2699622897421934
sg14
F0.0
sg15
F0.0
sg16
F0.0
sg17
F2630.0
sg18
F0.0
sg19
F200000.0
sg20
F3064208.0
sg21
F0.0
sg22
F0.0
sg23
F0.0
sg24
F514847.0
sg25
F0.0
sg26
F236457.0
sg27
F875889.0
sg28
F2549361.0
sg29
F0.0
ssS'MEYER JEROME J'
p206
(dp207
g3
F0.0
sg4
F0.0
sg5
F2151.0
sg6
F0.0
sg7
F0.0
sg8
g32
sg10
F0.0
sg11
F-38346.0
sg12
F0.0
sg13
F0.0
sg14
F0.0
sg15
F0.0
sg16
F0.0
sg17
F0.0
sg18
F38346.0
sg19
F0.0
sg20
F0.0
sg21
F0.0
sg22
F0.0
sg23
F0.0
sg24
F0.0
sg25
F0.0
sg26
F0.0
sg27
F2151.0
sg28
F0.0
sg29
F0.0
ssS'LAY KENNETH L'
p208
(dp209
g3
F4273.0
sg4
F202911.0
sg5
F99832.0
sg6
F1.0
sg7
F3600000.0
sg8
S'kenneth.lay@enron.com'
p210
sg10
F123.0
sg11
F-300000.0
sg12
F0.0
sg13
F0.010354607410233042
sg14
F2411.0
sg15
F81525000.0
sg16
F36.0
sg17
F10359729.0
sg18
F0.0
sg19
F7000000.0
sg20
F49110078.0
sg21
F0.003744441844137608
sg22
F16.0
sg23
F118.69444444444444
sg24
F14761694.0
sg25
F66.97222222222223
sg26
F1072321.0
sg27
F103559793.0
sg28
F34348384.0
sg29
F3.4166666666666665
ssS'BUTTS ROBERT H'
p211
(dp212
g3
F0.0
sg4
F0.0
sg5
F9410.0
sg6
F0.0
sg7
F175000.0
sg8
S'bob.butts@enron.com'
p213
sg10
F0.0
sg11
F-75000.0
sg12
F0.0
sg13
F0.20566192349372672
sg14
F0.0
sg15
F0.0
sg16
F0.0
sg17
F150656.0
sg18
F0.0
sg19
F750000.0
sg20
F417619.0
sg21
F0.0
sg22
F0.0
sg23
F0.0
sg24
F417619.0
sg25
F0.0
sg26
F261516.0
sg27
F1271582.0
sg28
F0.0
sg29
F0.0
ssS'OLSON CINDY K'
p214
(dp215
g3
F1184.0
sg4
F77716.0
sg5
F63791.0
sg6
F0.0
sg7
F100000.0
sg8
S'cindy.olson@enron.com'
p216
sg10
F20.0
sg11
F0.0
sg12
F0.0
sg13
F0.2490077991339004
sg14
F856.0
sg15
F0.0
sg16
F52.0
sg17
F972.0
sg18
F0.0
sg19
F750000.0
sg20
F2606763.0
sg21
F0.01266891891891892
sg22
F15.0
sg23
F22.76923076923077
sg24
F969729.0
sg25
F16.46153846153846
sg26
F329078.0
sg27
F1321557.0
sg28
F1637034.0
sg29
F0.38461538461538464
ssS'MCDONALD REBECCA'
p217
(dp218
g3
F894.0
sg4
F0.0
sg5
F0.0
sg6
F0.0
sg7
F0.0
sg8
S'rebecca.mcdonald@enron.com'
p219
sg10
F54.0
sg11
F0.0
sg12
F0.0
sg13
F0.0
sg14
F720.0
sg15
F0.0
sg16
F13.0
sg17
F0.0
sg18
F0.0
sg19
F0.0
sg20
F1691366.0
sg21
F0.0011185682326621924
sg22
F1.0
sg23
F68.76923076923077
sg24
F934065.0
sg25
F55.38461538461539
sg26
F0.0
sg27
F0.0
sg28
F757301.0
sg29
F4.153846153846154
ssS'CUMBERLAND MICHAEL S'
p220
(dp221
g3
F0.0
sg4
F0.0
sg5
F22344.0
sg6
F0.0
sg7
F275000.0
sg8
g32
sg10
F0.0
sg11
F0.0
sg12
F0.0
sg13
F0.2288478580516761
sg14
F0.0
sg15
F0.0
sg16
F0.0
sg17
F713.0
sg18
F0.0
sg19
F325000.0
sg20
F207940.0
sg21
F0.0
sg22
F0.0
sg23
F0.0
sg24
F207940.0
sg25
F0.0
sg26
F184899.0
sg27
F807956.0
sg28
F0.0
sg29
F0.0
ssS'GAHN ROBERT S'
p222
(dp223
g3
F0.0
sg4
F73122.0
sg5
F50080.0
sg6
F0.0
sg7
F0.0
sg8
g32
sg10
F0.0
sg11
F-1042.0
sg12
F0.0
sg13
F0.21320363985631563
sg14
F0.0
sg15
F0.0
sg16
F0.0
sg17
F76547.0
sg18
F0.0
sg19
F509870.0
sg20
F318607.0
sg21
F0.0
sg22
F0.0
sg23
F0.0
sg24
F235370.0
sg25
F0.0
sg26
F192008.0
sg27
F900585.0
sg28
F83237.0
sg29
F0.0
ssS'MCCLELLAN GEORGE'
p224
(dp225
g3
F1744.0
sg4
F0.0
sg5
F228763.0
sg6
F0.0
sg7
F0.0
sg8
S'george.mcclellan@enron.com'
p226
sg10
F52.0
sg11
F-125000.0
sg12
F0.0
sg13
F0.1997424859508494
sg14
F1469.0
sg15
F0.0
sg16
F49.0
sg17
F51587.0
sg18
F0.0
sg19
F900000.0
sg20
F947861.0
sg21
F0.0
sg22
F0.0
sg23
F35.59183673469388
sg24
F441096.0
sg25
F29.979591836734695
sg26
F263413.0
sg27
F1318763.0
sg28
F506765.0
sg29
F1.0612244897959184
ssS'HERMANN ROBERT J'
p227
(dp228
g3
F0.0
sg4
F0.0
sg5
F48357.0
sg6
F0.0
sg7
F150000.0
sg8
S'robert.hermann@enron.com'
p229
sg10
F0.0
sg11
F-280000.0
sg12
F0.0
sg13
F0.20244384995001777
sg14
F0.0
sg15
F0.0
sg16
F0.0
sg17
F416441.0
sg18
F0.0
sg19
F700000.0
sg20
F668132.0
sg21
F0.0
sg22
F0.0
sg23
F0.0
sg24
F480632.0
sg25
F0.0
sg26
F262663.0
sg27
F1297461.0
sg28
F187500.0
sg29
F0.0
ssS'SCRIMSHAW MATTHEW'
p230
(dp231
g3
F0.0
sg4
F0.0
sg5
F0.0
sg6
F0.0
sg7
F0.0
sg8
S'matthew.scrimshaw@enron.com'
p232
sg10
F0.0
sg11
F0.0
sg12
F0.0
sg13
F0.0
sg14
F0.0
sg15
F0.0
sg16
F0.0
sg17
F0.0
sg18
F0.0
sg19
F0.0
sg20
F759557.0
sg21
F0.0
sg22
F0.0
sg23
F0.0
sg24
F0.0
sg25
F0.0
sg26
F0.0
sg27
F0.0
sg28
F759557.0
sg29
F0.0
ssS'GATHMANN WILLIAM D'
p233
(dp234
g3
F0.0
sg4
F0.0
sg5
F0.0
sg6
F0.0
sg7
F0.0
sg8
g32
sg10
F0.0
sg11
F0.0
sg12
F-72419.0
sg13
F0.0
sg14
F0.0
sg15
F0.0
sg16
F0.0
sg17
F0.0
sg18
F0.0
sg19
F0.0
sg20
F1945360.0
sg21
F0.0
sg22
F0.0
sg23
F0.0
sg24
F264013.0
sg25
F0.0
sg26
F0.0
sg27
F0.0
sg28
F1753766.0
sg29
F0.0
ssS'HAEDICKE MARK E'
p235
(dp236
g3
F4009.0
sg4
F2157527.0
sg5
F76169.0
sg6
F0.0
sg7
F983346.0
sg8
S'mark.haedicke@enron.com'
p237
sg10
F180.0
sg11
F-934484.0
sg12
F-329825.0
sg13
F0.09694705841959127
sg14
F1847.0
sg15
F0.0
sg16
F1941.0
sg17
F52382.0
sg18
F0.0
sg19
F1150000.0
sg20
F803094.0
sg21
F0.015215764529807932
sg22
F61.0
sg23
F2.06543019062339
sg24
F524169.0
sg25
F0.9515713549716641
sg26
F374125.0
sg27
F3859065.0
sg28
F608750.0
sg29
F0.09273570324574962
ssS'BOWEN JR RAYMOND M'
p238
(dp239
g3
F1858.0
sg4
F0.0
sg5
F65907.0
sg6
F1.0
sg7
F974293.0
sg8
S'raymond.bowen@enron.com'
p240
sg10
F140.0
sg11
F-833.0
sg12
F0.0
sg13
F0.10436100837994162
sg14
F1593.0
sg15
F0.0
sg16
F27.0
sg17
F1621.0
sg18
F0.0
sg19
F1350000.0
sg20
F252055.0
sg21
F0.008073196986006458
sg22
F15.0
sg23
F68.81481481481481
sg24
F252055.0
sg25
F59.0
sg26
F278601.0
sg27
F2669589.0
sg28
F0.0
sg29
F5.185185185185185
ssS'GILLIS JOHN'
p241
(dp242
g3
F0.0
sg4
F0.0
sg5
F0.0
sg6
F0.0
sg7
F0.0
sg8
g32
sg10
F0.0
sg11
F0.0
sg12
F0.0
sg13
F0.0
sg14
F0.0
sg15
F0.0
sg16
F0.0
sg17
F0.0
sg18
F0.0
sg19
F0.0
sg20
F85641.0
sg21
F0.0
sg22
F0.0
sg23
F0.0
sg24
F75838.0
sg25
F0.0
sg26
F0.0
sg27
F0.0
sg28
F9803.0
sg29
F0.0
ssS'FITZGERALD JAY L'
p243
(dp244
g3
F936.0
sg4
F0.0
sg5
F23870.0
sg6
F0.0
sg7
F556416.0
sg8
S'jay.fitzgerald@enron.com'
p245
sg10
F1.0
sg11
F0.0
sg12
F0.0
sg13
F0.14076122180545456
sg14
F723.0
sg15
F0.0
sg16
F16.0
sg17
F285414.0
sg18
F0.0
sg19
F350000.0
sg20
F1621236.0
sg21
F0.008547008547008548
sg22
F8.0
sg23
F58.5
sg24
F956775.0
sg25
F45.1875
sg26
F199157.0
sg27
F1414857.0
sg28
F664461.0
sg29
F0.0625
ssS'MORAN MICHAEL P'
p246
(dp247
g3
F672.0
sg4
F0.0
sg5
F0.0
sg6
F0.0
sg7
F0.0
sg8
S'michael.moran@enron.com'
p248
sg10
F0.0
sg11
F0.0
sg12
F0.0
sg13
F0.0
sg14
F127.0
sg15
F0.0
sg16
F19.0
sg17
F0.0
sg18
F0.0
sg19
F0.0
sg20
F221141.0
sg21
F0.0
sg22
F0.0
sg23
F35.36842105263158
sg24
F161602.0
sg25
F6.684210526315789
sg26
F0.0
sg27
F0.0
sg28
F59539.0
sg29
F0.0
ssS'REDMOND BRIAN L'
p249
(dp250
g3
F1671.0
sg4
F0.0
sg5
F14689.0
sg6
F0.0
sg7
F0.0
sg8
S'brian.redmond@enron.com'
p251
sg10
F204.0
sg11
F0.0
sg12
F0.0
sg13
F0.8682943449685732
sg14
F1063.0
sg15
F0.0
sg16
F221.0
sg17
F0.0
sg18
F0.0
sg19
F0.0
sg20
F7890324.0
sg21
F0.029323758228605626
sg22
F49.0
sg23
F7.5610859728506785
sg24
F381285.0
sg25
F4.8099547511312215
sg26
F96840.0
sg27
F111529.0
sg28
F7509039.0
sg29
F0.9230769230769231
ssS'BAZELIDES PHILIP J'
p252
(dp253
g3
F0.0
sg4
F684694.0
sg5
F0.0
sg6
F0.0
sg7
F93750.0
sg8
g32
sg10
F0.0
sg11
F0.0
sg12
F0.0
sg13
F0.0939595598835533
sg14
F0.0
sg15
F0.0
sg16
F0.0
sg17
F874.0
sg18
F0.0
sg19
F0.0
sg20
F1599641.0
sg21
F0.0
sg22
F0.0
sg23
F0.0
sg24
F0.0
sg25
F0.0
sg26
F80818.0
sg27
F860136.0
sg28
F1599641.0
sg29
F0.0
ssS'BELDEN TIMOTHY N'
p254
(dp255
g3
F7991.0
sg4
F2144013.0
sg5
F17355.0
sg6
F1.0
sg7
F0.0
sg8
S'tim.belden@enron.com'
p256
sg10
F228.0
sg11
F-2334434.0
sg12
F0.0
sg13
F0.03889738132153562
sg14
F5521.0
sg15
F0.0
sg16
F484.0
sg17
F210698.0
sg18
F0.0
sg19
F5249999.0
sg20
F1110705.0
sg21
F0.013515204605180828
sg22
F108.0
sg23
F16.510330578512395
sg24
F157569.0
sg25
F11.40702479338843
sg26
F213999.0
sg27
F5501630.0
sg28
F953136.0
sg29
F0.47107438016528924
ssS'DURAN WILLIAM D'
p257
(dp258
g3
F904.0
sg4
F0.0
sg5
F25785.0
sg6
F0.0
sg7
F1105218.0
sg8
S'w.duran@enron.com'
p259
sg10
F106.0
sg11
F0.0
sg12
F0.0
sg13
F0.10065242637929396
sg14
F599.0
sg15
F0.0
sg16
F12.0
sg17
F1568.0
sg18
F0.0
sg19
F750000.0
sg20
F1640910.0
sg21
F0.00331858407079646
sg22
F3.0
sg23
F75.33333333333333
sg24
F189041.0
sg25
F49.916666666666664
sg26
F210692.0
sg27
F2093263.0
sg28
F1451869.0
sg29
F8.833333333333334
ssS'THORN TERENCE H'
p260
(dp261
g3
F266.0
sg4
F16586.0
sg5
F46145.0
sg6
F0.0
sg7
F200000.0
sg8
S'terence.thorn@enron.com'
p262
sg10
F0.0
sg11
F0.0
sg12
F0.0
sg13
F0.24366917438419755
sg14
F73.0
sg15
F0.0
sg16
F41.0
sg17
F426629.0
sg18
F0.0
sg19
F0.0
sg20
F4817796.0
sg21
F0.0
sg22
F0.0
sg23
F6.487804878048781
sg24
F365320.0
sg25
F1.7804878048780488
sg26
F222093.0
sg27
F911453.0
sg28
F4452476.0
sg29
F0.0
ssS'FASTOW ANDREW S'
p263
(dp264
g3
F0.0
sg4
F0.0
sg5
F55921.0
sg6
F1.0
sg7
F1736055.0
sg8
S'andrew.fastow@enron.com'
p265
sg10
F0.0
sg11
F-1386055.0
sg12
F0.0
sg13
F0.1817998806146489
sg14
F0.0
sg15
F0.0
sg16
F0.0
sg17
F277464.0
sg18
F0.0
sg19
F1300000.0
sg20
F1794412.0
sg21
F0.0
sg22
F0.0
sg23
F0.0
sg24
F1794412.0
sg25
F0.0
sg26
F440698.0
sg27
F2424083.0
sg28
F0.0
sg29
F0.0
ssS'FOY JOE'
p266
(dp267
g3
F57.0
sg4
F181755.0
sg5
F0.0
sg6
F0.0
sg7
F0.0
sg8
S'tracy.foy@enron.com'
p268
sg10
F0.0
sg11
F0.0
sg12
F0.0
sg13
F0.0
sg14
F2.0
sg15
F0.0
sg16
F13.0
sg17
F0.0
sg18
F0.0
sg19
F0.0
sg20
F343434.0
sg21
F0.0
sg22
F0.0
sg23
F4.384615384615385
sg24
F0.0
sg25
F0.15384615384615385
sg26
F0.0
sg27
F181755.0
sg28
F343434.0
sg29
F0.0
ssS'CALGER CHRISTOPHER F'
p269
(dp270
g3
F2598.0
sg4
F0.0
sg5
F35818.0
sg6
F1.0
sg7
F375304.0
sg8
S'christopher.calger@enron.com'
p271
sg10
F199.0
sg11
F-262500.0
sg12
F0.0
sg13
F0.14651951415759315
sg14
F2188.0
sg15
F0.0
sg16
F144.0
sg17
F486.0
sg18
F0.0
sg19
F1250000.0
sg20
F126027.0
sg21
F0.00962278675904542
sg22
F25.0
sg23
F18.041666666666668
sg24
F126027.0
sg25
F15.194444444444445
sg26
F240189.0
sg27
F1639297.0
sg28
F0.0
sg29
F1.3819444444444444
ssS'RICE KENNETH D'
p272
(dp273
g3
F905.0
sg4
F0.0
sg5
F46950.0
sg6
F1.0
sg7
F1617011.0
sg8
S'ken.rice@enron.com'
p274
sg10
F42.0
sg11
F-3504386.0
sg12
F0.0
sg13
F0.8328601128601129
sg14
F864.0
sg15
F0.0
sg16
F18.0
sg17
F174839.0
sg18
F0.0
sg19
F1750000.0
sg20
F22542539.0
sg21
F0.004419889502762431
sg22
F4.0
sg23
F50.27777777777778
sg24
F2748364.0
sg25
F48.0
sg26
F420636.0
sg27
F505050.0
sg28
F19794175.0
sg29
F2.3333333333333335
ssS'KAMINSKI WINCENTY J'
p275
(dp276
g3
F4607.0
sg4
F0.0
sg5
F83585.0
sg6
F0.0
sg7
F323466.0
sg8
S'vince.kaminski@enron.com'
p277
sg10
F41.0
sg11
F0.0
sg12
F0.0
sg13
F0.2531244795601116
sg14
F583.0
sg15
F0.0
sg16
F14368.0
sg17
F4669.0
sg18
F0.0
sg19
F400000.0
sg20
F976037.0
sg21
F0.03711742999782939
sg22
F171.0
sg23
F0.3206430957683742
sg24
F126027.0
sg25
F0.04057628062360802
sg26
F275101.0
sg27
F1086821.0
sg28
F850010.0
sg29
F0.002853563474387528
ssS'COX DAVID'
p278
(dp279
g3
F102.0
sg4
F0.0
sg5
F27861.0
sg6
F0.0
sg7
F0.0
sg8
S'chip.cox@enron.com'
p280
sg10
F0.0
sg11
F-41250.0
sg12
F0.0
sg13
F0.28535500044035145
sg14
F71.0
sg15
F0.0
sg16
F33.0
sg17
F494.0
sg18
F0.0
sg19
F800000.0
sg20
F495633.0
sg21
F0.0392156862745098
sg22
F4.0
sg23
F3.090909090909091
sg24
F378082.0
sg25
F2.1515151515151514
sg26
F314288.0
sg27
F1101393.0
sg28
F117551.0
sg29
F0.0
ssS'OVERDYKE JR JERE C'
p281
(dp282
g3
F0.0
sg4
F0.0
sg5
F18834.0
sg6
F0.0
sg7
F135836.0
sg8
S'jere.overdyke@enron.com'
p283
sg10
F0.0
sg11
F0.0
sg12
F0.0
sg13
F0.38008783483527964
sg14
F0.0
sg15
F0.0
sg16
F0.0
sg17
F176.0
sg18
F0.0
sg19
F0.0
sg20
F7307594.0
sg21
F0.0
sg22
F0.0
sg23
F0.0
sg24
F2041016.0
sg25
F0.0
sg26
F94941.0
sg27
F249787.0
sg28
F5266578.0
sg29
F0.0
ssS'PEREIRA PAULO V. FERRAZ'
p284
(dp285
g3
F0.0
sg4
F0.0
sg5
F27942.0
sg6
F0.0
sg7
F0.0
sg8
g32
sg10
F0.0
sg11
F-101250.0
sg12
F0.0
sg13
F0.0
sg14
F0.0
sg15
F0.0
sg16
F0.0
sg17
F0.0
sg18
F101250.0
sg19
F0.0
sg20
F0.0
sg21
F0.0
sg22
F0.0
sg23
F0.0
sg24
F0.0
sg25
F0.0
sg26
F0.0
sg27
F27942.0
sg28
F0.0
sg29
F0.0
ssS'STABLER FRANK'
p286
(dp287
g3
F0.0
sg4
F0.0
sg5
F16514.0
sg6
F0.0
sg7
F0.0
sg8
S'frank.stabler@enron.com'
p288
sg10
F0.0
sg11
F0.0
sg12
F0.0
sg13
F0.21536264698715119
sg14
F0.0
sg15
F0.0
sg16
F0.0
sg17
F356071.0
sg18
F0.0
sg19
F500000.0
sg20
F511734.0
sg21
F0.0
sg22
F0.0
sg23
F0.0
sg24
F511734.0
sg25
F0.0
sg26
F239502.0
sg27
F1112087.0
sg28
F0.0
sg29
F0.0
ssS'SKILLING JEFFREY K'
p289
(dp290
g3
F3627.0
sg4
F0.0
sg5
F29336.0
sg6
F1.0
sg7
F1920000.0
sg8
S'jeff.skilling@enron.com'
p291
sg10
F88.0
sg11
F0.0
sg12
F0.0
sg13
F0.12798506826665756
sg14
F2042.0
sg15
F0.0
sg16
F108.0
sg17
F22122.0
sg18
F0.0
sg19
F5600000.0
sg20
F26093672.0
sg21
F0.008271298593879239
sg22
F30.0
sg23
F33.583333333333336
sg24
F6843672.0
sg25
F18.90740740740741
sg26
F1111258.0
sg27
F8682716.0
sg28
F19250000.0
sg29
F0.8148148148148148
ssS'BLAKE JR. NORMAN P'
p292
(dp293
g3
F0.0
sg4
F0.0
sg5
F1279.0
sg6
F0.0
sg7
F0.0
sg8
g32
sg10
F0.0
sg11
F-113784.0
sg12
F0.0
sg13
F0.0
sg14
F0.0
sg15
F0.0
sg16
F0.0
sg17
F0.0
sg18
F113784.0
sg19
F0.0
sg20
F0.0
sg21
F0.0
sg22
F0.0
sg23
F0.0
sg24
F0.0
sg25
F0.0
sg26
F0.0
sg27
F1279.0
sg28
F0.0
sg29
F0.0
ssS'SHERRICK JEFFREY B'
p294
(dp295
g3
F613.0
sg4
F0.0
sg5
F0.0
sg6
F0.0
sg7
F0.0
sg8
S'jeffrey.sherrick@enron.com'
p296
sg10
F39.0
sg11
F0.0
sg12
F0.0
sg13
F0.0
sg14
F583.0
sg15
F0.0
sg16
F25.0
sg17
F0.0
sg18
F0.0
sg19
F0.0
sg20
F1832468.0
sg21
F0.02936378466557912
sg22
F18.0
sg23
F24.52
sg24
F405999.0
sg25
F23.32
sg26
F0.0
sg27
F0.0
sg28
F1426469.0
sg29
F1.56
ssS'PRENTICE JAMES'
p297
(dp298
g3
F0.0
sg4
F564348.0
sg5
F0.0
sg6
F0.0
sg7
F0.0
sg8
S'james.prentice@enron.com'
p299
sg10
F0.0
sg11
F0.0
sg12
F0.0
sg13
F0.0
sg14
F0.0
sg15
F0.0
sg16
F0.0
sg17
F0.0
sg18
F0.0
sg19
F0.0
sg20
F1095040.0
sg21
F0.0
sg22
F0.0
sg23
F0.0
sg24
F208809.0
sg25
F0.0
sg26
F0.0
sg27
F564348.0
sg28
F886231.0
sg29
F0.0
ssS'GRAY RODNEY'
p300
(dp301
g3
F0.0
sg4
F93585.0
sg5
F0.0
sg6
F0.0
sg7
F365625.0
sg8
g32
sg10
F0.0
sg11
F0.0
sg12
F0.0
sg13
F0.005768938951282772
sg14
F0.0
sg15
F0.0
sg16
F0.0
sg17
F680833.0
sg18
F0.0
sg19
F0.0
sg20
F0.0
sg21
F0.0
sg22
F0.0
sg23
F0.0
sg24
F0.0
sg25
F0.0
sg26
F6615.0
sg27
F1146658.0
sg28
F0.0
sg29
F0.0
ssS'PICKERING MARK R'
p302
(dp303
g3
F898.0
sg4
F0.0
sg5
F31653.0
sg6
F0.0
sg7
F0.0
sg8
S'mark.pickering@enron.com'
p304
sg10
F7.0
sg11
F0.0
sg12
F0.0
sg13
F0.47237450331364617
sg14
F728.0
sg15
F400000.0
sg16
F67.0
sg17
F0.0
sg18
F0.0
sg19
F300000.0
sg20
F28798.0
sg21
F0.0
sg22
F0.0
sg23
F13.402985074626866
sg24
F0.0
sg25
F10.865671641791044
sg26
F655037.0
sg27
F1386690.0
sg28
F28798.0
sg29
F0.1044776119402985
ssS'NOLES JAMES L'
p305
(dp306
g3
F0.0
sg4
F774401.0
sg5
F0.0
sg6
F0.0
sg7
F0.0
sg8
g32
sg10
F0.0
sg11
F0.0
sg12
F-94556.0
sg13
F0.0
sg14
F0.0
sg15
F0.0
sg16
F0.0
sg17
F0.0
sg18
F0.0
sg19
F0.0
sg20
F368705.0
sg21
F0.0
sg22
F0.0
sg23
F0.0
sg24
F463261.0
sg25
F0.0
sg26
F0.0
sg27
F774401.0
sg28
F0.0
sg29
F0.0
ssS'KEAN STEVEN J'
p307
(dp308
g3
F12754.0
sg4
F0.0
sg5
F41953.0
sg6
F0.0
sg7
F300000.0
sg8
S'steven.kean@enron.com'
p309
sg10
F140.0
sg11
F0.0
sg12
F0.0
sg13
F0.23137791684453757
sg14
F3639.0
sg15
F0.0
sg16
F6759.0
sg17
F1231.0
sg18
F0.0
sg19
F1000000.0
sg20
F6153642.0
sg21
F0.03034342167163243
sg22
F387.0
sg23
F1.8869655274448882
sg24
F4131594.0
sg25
F0.538393253439858
sg26
F404338.0
sg27
F1747522.0
sg28
F2022048.0
sg29
F0.020713123243083296
ssS'FOWLER PEGGY'
p310
(dp311
g3
F517.0
sg4
F0.0
sg5
F0.0
sg6
F0.0
sg7
F0.0
sg8
S'kulvinder.fowler@enron.com'
p312
sg10
F0.0
sg11
F0.0
sg12
F0.0
sg13
F0.0
sg14
F10.0
sg15
F0.0
sg16
F36.0
sg17
F0.0
sg18
F0.0
sg19
F0.0
sg20
F1884748.0
sg21
F0.0
sg22
F0.0
sg23
F14.36111111111111
sg24
F560170.0
sg25
F0.2777777777777778
sg26
F0.0
sg27
F0.0
sg28
F1324578.0
sg29
F0.0
ssS'WASAFF GEORGE'
p313
(dp314
g3
F400.0
sg4
F831299.0
sg5
F0.0
sg6
F0.0
sg7
F200000.0
sg8
S'george.wasaff@enron.com'
p315
sg10
F22.0
sg11
F-583325.0
sg12
F0.0
sg13
F0.2513507895919837
sg14
F337.0
sg15
F0.0
sg16
F30.0
sg17
F1425.0
sg18
F0.0
sg19
F325000.0
sg20
F2056427.0
sg21
F0.0175
sg22
F7.0
sg23
F13.333333333333334
sg24
F388167.0
sg25
F11.233333333333333
sg26
F259996.0
sg27
F1034395.0
sg28
F1668260.0
sg29
F0.7333333333333333
ssS'WHITE JR THOMAS E'
p316
(dp317
g3
F0.0
sg4
F0.0
sg5
F81353.0
sg6
F0.0
sg7
F0.0
sg8
S'thomas.white@enron.com'
p318
sg10
F0.0
sg11
F0.0
sg12
F0.0
sg13
F0.1641592899766796
sg14
F0.0
sg15
F0.0
sg16
F0.0
sg17
F1085463.0
sg18
F0.0
sg19
F450000.0
sg20
F15144123.0
sg21
F0.0
sg22
F0.0
sg23
F0.0
sg24
F13847074.0
sg25
F0.0
sg26
F317543.0
sg27
F1934359.0
sg28
F1297049.0
sg29
F0.0
ssS'CHRISTODOULOU DIOMEDES'
p319
(dp320
g3
F0.0
sg4
F0.0
sg5
F0.0
sg6
F0.0
sg7
F0.0
sg8
S'diomedes.christodoulou@enron.com'
p321
sg10
F0.0
sg11
F0.0
sg12
F0.0
sg13
F0.0
sg14
F0.0
sg15
F0.0
sg16
F0.0
sg17
F0.0
sg18
F0.0
sg19
F0.0
sg20
F6077885.0
sg21
F0.0
sg22
F0.0
sg23
F0.0
sg24
F950730.0
sg25
F0.0
sg26
F0.0
sg27
F0.0
sg28
F5127155.0
sg29
F0.0
ssS'ALLEN PHILLIP K'
p322
(dp323
g3
F2902.0
sg4
F2869717.0
sg5
F13868.0
sg6
F0.0
sg7
F304805.0
sg8
S'phillip.allen@enron.com'
p324
sg10
F47.0
sg11
F-3081055.0
sg12
F-126027.0
sg13
F0.04503458847276874
sg14
F1407.0
sg15
F0.0
sg16
F2195.0
sg17
F152.0
sg18
F0.0
sg19
F4175000.0
sg20
F1729541.0
sg21
F0.022398345968297727
sg22
F65.0
sg23
F1.3220956719817767
sg24
F126027.0
sg25
F0.6410022779043281
sg26
F201955.0
sg27
F4484442.0
sg28
F1729541.0
sg29
F0.0214123006833713
ssS'SHARP VICTORIA T'
p325
(dp326
g3
F3136.0
sg4
F187469.0
sg5
F116337.0
sg6
F0.0
sg7
F422158.0
sg8
S'vicki.sharp@enron.com'
p327
sg10
F24.0
sg11
F0.0
sg12
F0.0
sg13
F0.15740200988131386
sg14
F2477.0
sg15
F0.0
sg16
F136.0
sg17
F2401.0
sg18
F0.0
sg19
F600000.0
sg20
F494136.0
sg21
F0.001913265306122449
sg22
F6.0
sg23
F23.058823529411764
sg24
F213063.0
sg25
F18.21323529411765
sg26
F248146.0
sg27
F1576511.0
sg28
F281073.0
sg29
F0.17647058823529413
ssS'JAEDICKE ROBERT'
p328
(dp329
g3
F0.0
sg4
F0.0
sg5
F0.0
sg6
F0.0
sg7
F0.0
sg8
g32
sg10
F0.0
sg11
F-25000.0
sg12
F-44093.0
sg13
F0.0
sg14
F0.0
sg15
F0.0
sg16
F0.0
sg17
F0.0
sg18
F108750.0
sg19
F0.0
sg20
F431750.0
sg21
F0.0
sg22
F0.0
sg23
F0.0
sg24
F44093.0
sg25
F0.0
sg26
F0.0
sg27
F83750.0
sg28
F431750.0
sg29
F0.0
ssS'WINOKUR JR. HERBERT S'
p330
(dp331
g3
F0.0
sg4
F0.0
sg5
F1413.0
sg6
F0.0
sg7
F0.0
sg8
g32
sg10
F0.0
sg11
F-25000.0
sg12
F0.0
sg13
F0.0
sg14
F0.0
sg15
F0.0
sg16
F0.0
sg17
F0.0
sg18
F108579.0
sg19
F0.0
sg20
F0.0
sg21
F0.0
sg22
F0.0
sg23
F0.0
sg24
F0.0
sg25
F0.0
sg26
F0.0
sg27
F84992.0
sg28
F0.0
sg29
F0.0
ssS'BROWN MICHAEL'
p332
(dp333
g3
F1486.0
sg4
F0.0
sg5
F49288.0
sg6
F0.0
sg7
F0.0
sg8
S'michael.brown@enron.com'
p334
sg10
F13.0
sg11
F0.0
sg12
F0.0
sg13
F0.0
sg14
F761.0
sg15
F0.0
sg16
F41.0
sg17
F0.0
sg18
F0.0
sg19
F0.0
sg20
F0.0
sg21
F0.0006729475100942127
sg22
F1.0
sg23
F36.24390243902439
sg24
F0.0
sg25
F18.5609756097561
sg26
F0.0
sg27
F49288.0
sg28
F0.0
sg29
F0.3170731707317073
ssS'BADUM JAMES P'
p335
(dp336
g3
F0.0
sg4
F178980.0
sg5
F3486.0
sg6
F0.0
sg7
F0.0
sg8
g32
sg10
F0.0
sg11
F0.0
sg12
F0.0
sg13
F0.0
sg14
F0.0
sg15
F0.0
sg16
F0.0
sg17
F0.0
sg18
F0.0
sg19
F0.0
sg20
F257817.0
sg21
F0.0
sg22
F0.0
sg23
F0.0
sg24
F0.0
sg25
F0.0
sg26
F0.0
sg27
F182466.0
sg28
F257817.0
sg29
F0.0
ssS'HUGHES JAMES A'
p337
(dp338
g3
F719.0
sg4
F0.0
sg5
F0.0
sg6
F0.0
sg7
F0.0
sg8
S'james.hughes@enron.com'
p339
sg10
F35.0
sg11
F0.0
sg12
F0.0
sg13
F0.0
sg14
F589.0
sg15
F0.0
sg16
F34.0
sg17
F0.0
sg18
F0.0
sg19
F0.0
sg20
F1118394.0
sg21
F0.006954102920723227
sg22
F5.0
sg23
F21.147058823529413
sg24
F363428.0
sg25
F17.323529411764707
sg26
F0.0
sg27
F0.0
sg28
F754966.0
sg29
F1.0294117647058822
ssS'REYNOLDS LAWRENCE'
p340
(dp341
g3
F0.0
sg4
F51365.0
sg5
F8409.0
sg6
F0.0
sg7
F156250.0
sg8
g32
sg10
F0.0
sg11
F-200000.0
sg12
F-140264.0
sg13
F0.1936726028265416
sg14
F0.0
sg15
F0.0
sg16
F0.0
sg17
F202052.0
sg18
F0.0
sg19
F100000.0
sg20
F4221891.0
sg21
F0.0
sg22
F0.0
sg23
F0.0
sg24
F201483.0
sg25
F0.0
sg26
F76399.0
sg27
F394475.0
sg28
F4160672.0
sg29
F0.0
ssS'DIMICHELE RICHARD G'
p342
(dp343
g3
F0.0
sg4
F0.0
sg5
F35812.0
sg6
F0.0
sg7
F694862.0
sg8
S'richard.dimichele@enron.com'
p344
sg10
F0.0
sg11
F0.0
sg12
F0.0
sg13
F0.11096758610409556
sg14
F0.0
sg15
F0.0
sg16
F0.0
sg17
F374689.0
sg18
F0.0
sg19
F1000000.0
sg20
F8317782.0
sg21
F0.0
sg22
F0.0
sg23
F0.0
sg24
F126027.0
sg25
F0.0
sg26
F262788.0
sg27
F2368151.0
sg28
F8191755.0
sg29
F0.0
ssS'BHATNAGAR SANJAY'
p345
(dp346
g3
F523.0
sg4
F0.0
sg5
F0.0
sg6
F0.0
sg7
F0.0
sg8
S'sanjay.bhatnagar@enron.com'
p347
sg10
F0.0
sg11
F0.0
sg12
F15456290.0
sg13
F0.0
sg14
F463.0
sg15
F0.0
sg16
F29.0
sg17
F137864.0
sg18
F137864.0
sg19
F0.0
sg20
F0.0
sg21
F0.0019120458891013384
sg22
F1.0
sg23
F18.03448275862069
sg24
F-2604490.0
sg25
F15.96551724137931
sg26
F0.0
sg27
F15456290.0
sg28
F2604490.0
sg29
F0.0
ssS'CARTER REBECCA C'
p348
(dp349
g3
F312.0
sg4
F0.0
sg5
F0.0
sg6
F0.0
sg7
F75000.0
sg8
S'rebecca.carter@enron.com'
p350
sg10
F29.0
sg11
F-159792.0
sg12
F-307301.0
sg13
F0.5482256568325875
sg14
F196.0
sg15
F0.0
sg16
F15.0
sg17
F540.0
sg18
F0.0
sg19
F300000.0
sg20
F0.0
sg21
F0.022435897435897436
sg22
F7.0
sg23
F20.8
sg24
F307301.0
sg25
F13.066666666666666
sg26
F261809.0
sg27
F477557.0
sg28
F0.0
sg29
F1.9333333333333333
ssS'BUCHANAN HAROLD G'
p351
(dp352
g3
F1088.0
sg4
F0.0
sg5
F600.0
sg6
F0.0
sg7
F304805.0
sg8
S'john.buchanan@enron.com'
p353
sg10
F0.0
sg11
F0.0
sg12
F0.0
sg13
F0.23516811945721608
sg14
F23.0
sg15
F0.0
sg16
F125.0
sg17
F1215.0
sg18
F0.0
sg19
F500000.0
sg20
F1014505.0
sg21
F0.0
sg22
F0.0
sg23
F8.704
sg24
F189041.0
sg25
F0.184
sg26
F248017.0
sg27
F1054637.0
sg28
F825464.0
sg29
F0.0
ssS'YEAP SOON'
p354
(dp355
g3
F0.0
sg4
F0.0
sg5
F55097.0
sg6
F0.0
sg7
F0.0
sg8
g32
sg10
F0.0
sg11
F0.0
sg12
F0.0
sg13
F0.0
sg14
F0.0
sg15
F0.0
sg16
F0.0
sg17
F0.0
sg18
F0.0
sg19
F0.0
sg20
F192758.0
sg21
F0.0
sg22
F0.0
sg23
F0.0
sg24
F0.0
sg25
F0.0
sg26
F0.0
sg27
F55097.0
sg28
F192758.0
sg29
F0.0
ssS'MURRAY JULIA H'
p356
(dp357
g3
F2192.0
sg4
F0.0
sg5
F57580.0
sg6
F0.0
sg7
F125000.0
sg8
S'julia.murray@enron.com'
p358
sg10
F11.0
sg11
F0.0
sg12
F0.0
sg13
F0.2823020115883644
sg14
F395.0
sg15
F0.0
sg16
F45.0
sg17
F330.0
sg18
F0.0
sg19
F400000.0
sg20
F597461.0
sg21
F0.0009124087591240876
sg22
F2.0
sg23
F48.71111111111111
sg24
F196983.0
sg25
F8.777777777777779
sg26
F229284.0
sg27
F812194.0
sg28
F400478.0
sg29
F0.24444444444444444
ssS'GARLAND C KEVIN'
p359
(dp360
g3
F209.0
sg4
F0.0
sg5
F48405.0
sg6
F0.0
sg7
F375304.0
sg8
S'kevin.garland@enron.com'
p361
sg10
F10.0
sg11
F0.0
sg12
F0.0
sg13
F0.14806932023551056
sg14
F178.0
sg15
F0.0
sg16
F44.0
sg17
F60814.0
sg18
F0.0
sg19
F850000.0
sg20
F896153.0
sg21
F0.1291866028708134
sg22
F27.0
sg23
F4.75
sg24
F259907.0
sg25
F4.045454545454546
sg26
F231946.0
sg27
F1566469.0
sg28
F636246.0
sg29
F0.22727272727272727
ssS'DODSON KEITH'
p362
(dp363
g3
F176.0
sg4
F0.0
sg5
F28164.0
sg6
F0.0
sg7
F0.0
sg8
S'keith.dodson@enron.com'
p364
sg10
F10.0
sg11
F0.0
sg12
F0.0
sg13
F0.6907617341947422
sg14
F114.0
sg15
F0.0
sg16
F14.0
sg17
F774.0
sg18
F0.0
sg19
F70000.0
sg20
F0.0
sg21
F0.017045454545454544
sg22
F3.0
sg23
F12.571428571428571
sg24
F0.0
sg25
F8.142857142857142
sg26
F221003.0
sg27
F319941.0
sg28
F0.0
sg29
F0.7142857142857143
ssS'YEAGER F SCOTT'
p365
(dp366
g3
F0.0
sg4
F0.0
sg5
F53947.0
sg6
F1.0
sg7
F0.0
sg8
S'scott.yeager@enron.com'
p367
sg10
F0.0
sg11
F0.0
sg12
F0.0
sg13
F0.4396419650291424
sg14
F0.0
sg15
F0.0
sg16
F0.0
sg17
F147950.0
sg18
F0.0
sg19
F0.0
sg20
F11884758.0
sg21
F0.0
sg22
F0.0
sg23
F0.0
sg24
F3576206.0
sg25
F0.0
sg26
F158403.0
sg27
F360300.0
sg28
F8308552.0
sg29
F0.0
ssS'HIRKO JOSEPH'
p368
(dp369
g3
F0.0
sg4
F10259.0
sg5
F77978.0
sg6
F1.0
sg7
F0.0
sg8
S'joe.hirko@enron.com'
p370
sg10
F0.0
sg11
F0.0
sg12
F0.0
sg13
F0.0
sg14
F0.0
sg15
F0.0
sg16
F0.0
sg17
F2856.0
sg18
F0.0
sg19
F0.0
sg20
F30766064.0
sg21
F0.0
sg22
F0.0
sg23
F0.0
sg24
F0.0
sg25
F0.0
sg26
F0.0
sg27
F91093.0
sg28
F30766064.0
sg29
F0.0
ssS'DIETRICH JANET R'
p371
(dp372
g3
F2572.0
sg4
F0.0
sg5
F3475.0
sg6
F0.0
sg7
F556416.0
sg8
S'janet.dietrich@enron.com'
p373
sg10
F305.0
sg11
F0.0
sg12
F0.0
sg13
F0.1773175352224516
sg14
F1902.0
sg15
F0.0
sg16
F63.0
sg17
F473.0
sg18
F0.0
sg19
F600000.0
sg20
F1865087.0
sg21
F0.005443234836702955
sg22
F14.0
sg23
F40.82539682539682
sg24
F315068.0
sg25
F30.19047619047619
sg26
F250100.0
sg27
F1410464.0
sg28
F1550019.0
sg29
F4.841269841269841
ssS'DERRICK JR. JAMES V'
p374
(dp375
g3
F2181.0
sg4
F0.0
sg5
F51124.0
sg6
F0.0
sg7
F484000.0
sg8
S'james.derrick@enron.com'
p376
sg10
F64.0
sg11
F-1284000.0
sg12
F-1787380.0
sg13
F0.8936333557781484
sg14
F1401.0
sg15
F0.0
sg16
F909.0
sg17
F7482.0
sg18
F0.0
sg19
F800000.0
sg20
F8831913.0
sg21
F0.009170105456212746
sg22
F20.0
sg23
F2.3993399339933994
sg24
F1787380.0
sg25
F1.5412541254125414
sg26
F492375.0
sg27
F550981.0
sg28
F8831913.0
sg29
F0.0704070407040704
ssS'FREVERT MARK A'
p377
(dp378
g3
F3275.0
sg4
F6426990.0
sg5
F86987.0
sg6
F0.0
sg7
F1617011.0
sg8
S'mark.frevert@enron.com'
p379
sg10
F242.0
sg11
F-3367011.0
sg12
F0.0
sg13
F0.06149428518599881
sg14
F2979.0
sg15
F2000000.0
sg16
F21.0
sg17
F7427621.0
sg18
F0.0
sg19
F2000000.0
sg20
F14622185.0
sg21
F0.00183206106870229
sg22
F6.0
sg23
F155.95238095238096
sg24
F4188667.0
sg25
F141.85714285714286
sg26
F1060932.0
sg27
F17252530.0
sg28
F10433518.0
sg29
F11.523809523809524
ssS'PAI LOU L'
p380
(dp381
g3
F0.0
sg4
F0.0
sg5
F32047.0
sg6
F0.0
sg7
F0.0
sg8
S'lou.pai@enron.com'
p382
sg10
F0.0
sg11
F0.0
sg12
F0.0
sg13
F0.08384466458324195
sg14
F0.0
sg15
F0.0
sg16
F0.0
sg17
F1829457.0
sg18
F0.0
sg19
F1000000.0
sg20
F23817930.0
sg21
F0.0
sg22
F0.0
sg23
F0.0
sg24
F8453763.0
sg25
F0.0
sg26
F261879.0
sg27
F3123383.0
sg28
F15364167.0
sg29
F0.0
ssS'BAY FRANKLIN R'
p383
(dp384
g3
F0.0
sg4
F260455.0
sg5
F129142.0
sg6
F0.0
sg7
F0.0
sg8
S'frank.bay@enron.com'
p385
sg10
F0.0
sg11
F-201641.0
sg12
F-82782.0
sg13
F0.2895640428369836
sg14
F0.0
sg15
F0.0
sg16
F0.0
sg17
F69.0
sg18
F0.0
sg19
F400000.0
sg20
F63014.0
sg21
F0.0
sg22
F0.0
sg23
F0.0
sg24
F145796.0
sg25
F0.0
sg26
F239671.0
sg27
F827696.0
sg28
F0.0
sg29
F0.0
ssS'HAYSLETT RODERICK J'
p386
(dp387
g3
F2649.0
sg4
F0.0
sg5
F0.0
sg6
F0.0
sg7
F0.0
sg8
S'rod.hayslett@enron.com'
p388
sg10
F35.0
sg11
F0.0
sg12
F0.0
sg13
F0.0
sg14
F571.0
sg15
F0.0
sg16
F1061.0
sg17
F0.0
sg18
F0.0
sg19
F0.0
sg20
F346663.0
sg21
F0.014345035862589657
sg22
F38.0
sg23
F2.4967012252591894
sg24
F346663.0
sg25
F0.5381715362865221
sg26
F0.0
sg27
F0.0
sg28
F0.0
sg29
F0.03298774740810556
ssS'FUGH JOHN L'
p389
(dp390
g3
F0.0
sg4
F50591.0
sg5
F0.0
sg6
F0.0
sg7
F0.0
sg8
g32
sg10
F0.0
sg11
F0.0
sg12
F0.0
sg13
F0.0
sg14
F0.0
sg15
F0.0
sg16
F0.0
sg17
F0.0
sg18
F0.0
sg19
F0.0
sg20
F176378.0
sg21
F0.0
sg22
F0.0
sg23
F0.0
sg24
F0.0
sg25
F0.0
sg26
F0.0
sg27
F50591.0
sg28
F176378.0
sg29
F0.0
ssS'FALLON JAMES B'
p391
(dp392
g3
F1755.0
sg4
F0.0
sg5
F95924.0
sg6
F0.0
sg7
F374347.0
sg8
S'jim.fallon@enron.com'
p393
sg10
F42.0
sg11
F0.0
sg12
F0.0
sg13
F0.08285087886321722
sg14
F1604.0
sg15
F0.0
sg16
F75.0
sg17
F401481.0
sg18
F0.0
sg19
F2500000.0
sg20
F2332399.0
sg21
F0.021082621082621083
sg22
F37.0
sg23
F23.4
sg24
F1392142.0
sg25
F21.386666666666667
sg26
F304588.0
sg27
F3676340.0
sg28
F940257.0
sg29
F0.56
ssS'KOENIG MARK E'
p394
(dp395
g3
F2374.0
sg4
F0.0
sg5
F127017.0
sg6
F1.0
sg7
F300000.0
sg8
S'mark.koenig@enron.com'
p396
sg10
F53.0
sg11
F0.0
sg12
F0.0
sg13
F0.19525129124535962
sg14
F2271.0
sg15
F0.0
sg16
F61.0
sg17
F150458.0
sg18
F0.0
sg19
F700000.0
sg20
F1920055.0
sg21
F0.006318449873631003
sg22
F15.0
sg23
F38.91803278688525
sg24
F1248318.0
sg25
F37.22950819672131
sg26
F309946.0
sg27
F1587421.0
sg28
F671737.0
sg29
F0.8688524590163934
ssS'SAVAGE FRANK'
p397
(dp398
g3
F0.0
sg4
F0.0
sg5
F0.0
sg6
F0.0
sg7
F0.0
sg8
g32
sg10
F0.0
sg11
F-121284.0
sg12
F0.0
sg13
F0.0
sg14
F0.0
sg15
F0.0
sg16
F0.0
sg17
F0.0
sg18
F125034.0
sg19
F0.0
sg20
F0.0
sg21
F0.0
sg22
F0.0
sg23
F0.0
sg24
F0.0
sg25
F0.0
sg26
F0.0
sg27
F3750.0
sg28
F0.0
sg29
F0.0
ssS'IZZO LAWRENCE L'
p399
(dp400
g3
F496.0
sg4
F0.0
sg5
F28093.0
sg6
F0.0
sg7
F312500.0
sg8
S'larry.izzo@enron.com'
p401
sg10
F28.0
sg11
F0.0
sg12
F0.0
sg13
F0.043076466107225916
sg14
F437.0
sg15
F0.0
sg16
F19.0
sg17
F1553729.0
sg18
F0.0
sg19
F0.0
sg20
F5819980.0
sg21
F0.010080645161290322
sg22
F5.0
sg23
F26.105263157894736
sg24
F3654808.0
sg25
F23.0
sg26
F85274.0
sg27
F1979596.0
sg28
F2165172.0
sg29
F1.4736842105263157
ssS'TILNEY ELIZABETH A'
p402
(dp403
g3
F460.0
sg4
F0.0
sg5
F0.0
sg6
F0.0
sg7
F275000.0
sg8
S'elizabeth.tilney@enron.com'
p404
sg10
F10.0
sg11
F-575000.0
sg12
F0.0
sg13
F0.6192847646303266
sg14
F379.0
sg15
F0.0
sg16
F19.0
sg17
F152055.0
sg18
F0.0
sg19
F300000.0
sg20
F1168042.0
sg21
F0.02391304347826087
sg22
F11.0
sg23
F24.210526315789473
sg24
F576792.0
sg25
F19.94736842105263
sg26
F247338.0
sg27
F399393.0
sg28
F591250.0
sg29
F0.5263157894736842
ssS'MARTIN AMANDA K'
p405
(dp406
g3
F1522.0
sg4
F85430.0
sg5
F8211.0
sg6
F0.0
sg7
F5145434.0
sg8
S'a..martin@enron.com'
p407
sg10
F8.0
sg11
F0.0
sg12
F0.0
sg13
F0.04157087366076144
sg14
F477.0
sg15
F0.0
sg16
F230.0
sg17
F2818454.0
sg18
F0.0
sg19
F0.0
sg20
F2070306.0
sg21
F0.0
sg22
F0.0
sg23
F6.6173913043478265
sg24
F0.0
sg25
F2.0739130434782607
sg26
F349487.0
sg27
F8407016.0
sg28
F2070306.0
sg29
F0.034782608695652174
ssS'BUY RICHARD B'
p408
(dp409
g3
F3523.0
sg4
F649584.0
sg5
F0.0
sg6
F0.0
sg7
F769862.0
sg8
S'rick.buy@enron.com'
p410
sg10
F156.0
sg11
F-694862.0
sg12
F0.0
sg13
F0.14031740856865596
sg14
F2333.0
sg15
F0.0
sg16
F1053.0
sg17
F400572.0
sg18
F0.0
sg19
F900000.0
sg20
F3444470.0
sg21
F0.02015327845586148
sg22
F71.0
sg23
F3.345679012345679
sg24
F901657.0
sg25
F2.2155745489078824
sg26
F330546.0
sg27
F2355702.0
sg28
F2542813.0
sg29
F0.14814814814814814
ssS'GRAMM WENDY L'
p411
(dp412
g3
F0.0
sg4
F0.0
sg5
F0.0
sg6
F0.0
sg7
F0.0
sg8
g32
sg10
F0.0
sg11
F0.0
sg12
F0.0
sg13
F0.0
sg14
F0.0
sg15
F0.0
sg16
F0.0
sg17
F0.0
sg18
F119292.0
sg19
F0.0
sg20
F0.0
sg21
F0.0
sg22
F0.0
sg23
F0.0
sg24
F0.0
sg25
F0.0
sg26
F0.0
sg27
F119292.0
sg28
F0.0
sg29
F0.0
ssS'CAUSEY RICHARD A'
p413
(dp414
g3
F1892.0
sg4
F0.0
sg5
F30674.0
sg6
F1.0
sg7
F350000.0
sg8
S'richard.causey@enron.com'
p415
sg10
F58.0
sg11
F-235000.0
sg12
F0.0
sg13
F0.22217376460729532
sg14
F1585.0
sg15
F0.0
sg16
F49.0
sg17
F307895.0
sg18
F0.0
sg19
F1000000.0
sg20
F2502063.0
sg21
F0.006342494714587738
sg22
F12.0
sg23
F38.61224489795919
sg24
F2502063.0
sg25
F32.3469387755102
sg26
F415189.0
sg27
F1868758.0
sg28
F0.0
sg29
F1.183673469387755
ssS'TAYLOR MITCHELL S'
p416
(dp417
g3
F533.0
sg4
F227449.0
sg5
F0.0
sg6
F0.0
sg7
F0.0
sg8
S'mitchell.taylor@enron.com'
p418
sg10
F0.0
sg11
F0.0
sg12
F0.0
sg13
F0.24272259607948654
sg14
F300.0
sg15
F0.0
sg16
F29.0
sg17
F0.0
sg18
F0.0
sg19
F600000.0
sg20
F3745048.0
sg21
F0.0
sg22
F0.0
sg23
F18.379310344827587
sg24
F563798.0
sg25
F10.344827586206897
sg26
F265214.0
sg27
F1092663.0
sg28
F3181250.0
sg29
F0.0
ssS'DONAHUE JR JEFFREY M'
p419
(dp420
g3
F865.0
sg4
F0.0
sg5
F96268.0
sg6
F0.0
sg7
F0.0
sg8
S'jeff.donahue@enron.com'
p421
sg10
F188.0
sg11
F-300000.0
sg12
F0.0
sg13
F0.3181248287201973
sg14
F772.0
sg15
F0.0
sg16
F22.0
sg17
F891.0
sg18
F0.0
sg19
F800000.0
sg20
F1080988.0
sg21
F0.012716763005780347
sg22
F11.0
sg23
F39.31818181818182
sg24
F315068.0
sg25
F35.09090909090909
sg26
F278601.0
sg27
F875760.0
sg28
F765920.0
sg29
F8.545454545454545
ssS'GLISAN JR BEN F'
p422
(dp423
g3
F873.0
sg4
F0.0
sg5
F125978.0
sg6
F1.0
sg7
F71023.0
sg8
S'ben.glisan@enron.com'
p424
sg10
F52.0
sg11
F0.0
sg12
F0.0
sg13
F0.21612705968164342
sg14
F874.0
sg15
F0.0
sg16
F16.0
sg17
F200308.0
sg18
F0.0
sg19
F600000.0
sg20
F778546.0
sg21
F0.006872852233676976
sg22
F6.0
sg23
F54.5625
sg24
F393818.0
sg25
F54.625
sg26
F274975.0
sg27
F1272284.0
sg28
F384728.0
sg29
F3.25
ss.